ccollections
Counter
p0
((dp1
S'looks nice'
p2
(lp3
F-7.803054784623979
aF6.829715001286441
asS'not satisfied'
p4
(lp5
F6.047537312204078
aF-6.543031820255238
asS'really good'
p6
(lp7
F-7.072534599722955
aF-8.377210530388552
asS'quality poor'
p8
(lp9
F5.796559389201239
aF-7.851749041416057
asS'ever bought'
p10
(lp11
F6.413707159209287
aF-7.79658045046343
asS'cheap best'
p12
(lp13
F-7.794415866350106
aF6.389016179222671
asS'good build'
p14
(lp15
F-8.0
aF5.810701082364563
asS'low price'
p16
(lp17
F-7.798741791752897
aF6.429279466099576
asS'bad quality'
p18
(lp19
F5.796559389201239
aF-7.845490050944376
asS'value money'
p20
(lp21
F-5.400879436282184
aF6.019017427854514
asS'good performance'
p22
(lp23
F-7.584962500721156
aF5.4762302247619425
asS'not too'
p24
(lp25
F6.26883292751332
aF-7.543031820255239
asS'recommend friends'
p26
(lp27
F-7.807354922057604
aF6.455571501302843
asS'absolutely fantastic'
p28
(lp29
F-7.790076930625769
aF6.829715001286441
asS'wastage money'
p30
(lp31
F6.209142963064606
aF-7.372865060112588
asS'product perfect'
p32
(lp33
F-8.01495034146597
aF5.527719711259511
asS'happy product'
p34
(lp35
F-6.796580450463429
aF-8.370687406807217
asS'great quality'
p36
(lp37
F-7.4241662888181
aF5.540351871788735
asS'speed usable'
p38
(lp39
F-7.800899899920305
aF6.35320651698105
asS'product using'
p40
(lp41
F-8.01495034146597
aF5.385682084556739
asS'easy operate'
p42
(lp43
F-7.8223052635235755
aF6.68767737458367
asS'quality unbelievable'
p44
(lp45
F-7.934673752122057
aF5.894572606970233
asS'product good'
p46
(lp47
F-7.014950341465972
aF4.6507434190404044
asS'quality excellent'
p48
(lp49
F-7.1977081579558515
aF5.894572606970233
asS'very poor'
p50
(lp51
F5.825193835578732
aF-6.45121111183233
asS'awesome product'
p52
(lp53
F-7.413627929024173
aF5.527719711259511
asS'worst product'
p54
(lp55
F5.596963907832857
aF-5.504620392403553
asS'certainly recommend'
p56
(lp57
F-7.787902559391432
aF6.597609128005615
asS'too good'
p58
(lp59
F-7.0574502721839005
aF5.4762302247619425
asS'bad impression'
p60
(lp61
F6.969343901277735
aF-7.845490050944376
asS'nice product'
p62
(lp63
F-6.623097629607928
aF5.527719711259511
asS'built quality'
p64
(lp65
F-7.787902559391432
aF-8.368506461507693
asS'much satisfied'
p66
(lp67
F-7.787902559391432
aF-8.375039431346924
asS'nothing great'
p68
(lp69
F6.159762133600209
aF-7.790076930625769
asS'bad product'
p70
(lp71
F5.596963907832857
aF-6.430452551665532
asS'very useful'
p72
(lp73
F-7.187846909439575
aF5.59086126509883
asS'cheap quality'
p74
(lp75
F5.380005537310323
aF-7.379378367071262
asS'very bad'
p76
(lp77
F5.825193835578732
aF-5.451211111832329
asS'till date'
p78
(lp79
F-7.372865060112588
aF6.829715001286441
asS'looks very'
p80
(lp81
F-7.803054784623979
aF5.822967138379657
asS'light weight'
p82
(lp83
F-7.068240861312821
aF6.829715001286441
asS'not comfortable'
p84
(lp85
F6.26883292751332
aF-7.958069319534082
asS'serves purpose'
p86
(lp87
F-7.785724906086061
aF6.829715001286441
asS'product quality'
p88
(lp89
F-7.277984747299766
aF-7.946418959795157
asS'excellent product'
p90
(lp91
F-5.843397671983134
aF5.527719711259511
asS'very cheap'
p92
(lp93
F-8.509775004326938
aF-7.866248611111173
asS'highly recommend'
p94
(lp95
F-7.794415866350106
aF6.365503254724789
asS'good packing'
p96
(lp97
F-8.0
aF5.810701082364563
asS'product worth'
p98
(lp99
F-8.01495034146597
aF5.228117888064478
asS'best quality'
p100
(lp101
F-7.8538293518571045
aF5.894572606970233
asS'best price'
p102
(lp103
F-7.8538293518571045
aF6.829715001286441
asS'looking good'
p104
(lp105
F-8.390168956200185
aF-8.370687406807217
asS'product best'
p106
(lp107
F-7.277984747299766
aF5.527719711259511
asS'looking budget'
p108
(lp109
F-7.805206455479028
aF6.597609128005615
asS'product very'
p110
(lp111
F-7.277984747299766
aF-7.946418959795157
asS'good battery'
p112
(lp113
F-8.0
aF5.653136885872302
asS'nice quality'
p114
(lp115
F-7.845490050944376
aF5.894572606970233
asS'worthy product'
p116
(lp117
F-7.787902559391432
aF5.295613837978685
asS'build quality'
p118
(lp119
F-5.928585666707837
aF-8.368506461507693
asS'easy install'
p120
(lp121
F-7.08533966935737
aF6.829715001286441
asS'working perfectly'
p122
(lp123
F-7.803054784623979
aF6.06401731671911
asS'working within'
p124
(lp125
F6.4360190810560525
aF-7.824428435416546
asS'product not'
p126
(lp127
F-8.599912842187129
aF-5.624490864907793
asS'worth money'
p128
(lp129
F-6.59138876988059
aF-8.372865060112588
asS'good looking'
p130
(lp131
F-7.584962500721156
aF-8.426264754702098
asS'good price'
p132
(lp133
F-8.0
aF5.952738709067336
asS'sound quality'
p134
(lp135
F-8.370687406807217
aF-8.368506461507693
asS'good condition'
p136
(lp137
F-8.0
aF5.952738709067336
asS'satisfied product'
p138
(lp139
F-6.22881869049588
aF5.0188697828326685
asS'image quality'
p140
(lp141
F-7.785724906086061
aF5.894572606970233
asS'materials used'
p142
(lp143
F-7.785724906086061
aF6.475494266104942
asS'friends buy'
p144
(lp145
F-8.370687406807217
aF-8.368506461507693
asS'very nice'
p146
(lp147
F-6.702420082269333
aF5.822967138379657
asS'not much'
p148
(lp149
F6.401429657530735
aF-7.543031820255239
asS'product useless'
p150
(lp151
F5.596963907832857
aF-7.946418959795157
asS'bad bad'
p152
(lp153
F6.969343901277735
aF-7.845490050944376
asS'very disappointing'
p154
(lp155
F5.825193835578732
aF-7.866248611111173
asS'picture quality'
p156
(lp157
F-7.3772105303885525
aF-7.785724906086061
asS'product great'
p158
(lp159
F-7.599912842187128
aF5.173498976078012
asS'transfer speed'
p160
(lp161
F6.241182417196233
aF-7.7922480296673955
asS'best phone'
p162
(lp163
F-7.116863757690899
aF6.68767737458367
asS'great speed'
p164
(lp165
F-7.8392037880969445
aF5.998985781799549
asS'never ever'
p166
(lp167
F6.413707159209287
aF-7.794415866350106
asS'product excellent'
p168
(lp169
F-7.277984747299766
aF5.527719711259511
asS'very happy'
p170
(lp171
F-7.509775004326937
aF5.59086126509883
asS'working fine'
p172
(lp173
F-7.803054784623979
aF6.06401731671911
asS'good picture'
p174
(lp175
F-8.0
aF5.720632835786509
asS'reasonable price'
p176
(lp177
F-7.790076930625769
aF6.829715001286441
asS'stylish design'
p178
(lp179
F-7.790076930625769
aF6.475494266104942
asS'very much'
p180
(lp181
F-7.924812503605781
aF5.468746403198157
asS'damaged product'
p182
(lp183
F5.596963907832857
aF-7.7922480296673955
asS'working properly'
p184
(lp185
F6.4360190810560525
aF-7.08746284125034
asS'not worthy'
p186
(lp187
F6.401429657530735
aF-7.958069319534082
asS'low quality'
p188
(lp189
F5.316247922933602
aF-7.7922480296673955
asS'please dont'
p190
(lp191
F6.685386779404235
aF-7.3772105303885525
asS'good pendrive'
p192
(lp193
F-8.0
aF5.552303173880469
asS'good quality'
p194
(lp195
F-5.337034987277571
aF-7.841302253980943
asS'easy carry'
p196
(lp197
F-7.08533966935737
aF6.829715001286441
asS'very comfortable'
p198
(lp199
F-7.509775004326937
aF5.59086126509883
asS'affordable price'
p200
(lp201
F-7.3750394313469245
aF6.829715001286441
asS'speed not'
p202
(lp203
F6.17748411163687
aF-7.79658045046343
asS'study lamp'
p204
(lp205
F-7.05528243550119
aF6.829715001286441
asS'very worst'
p206
(lp207
F5.825193835578732
aF-7.866248611111173
asS'speed very'
p208
(lp209
F-8.38586240064146
aF-8.381542951184587
asS'very reasonable'
p210
(lp211
F-7.924812503605781
aF5.822967138379657
asS'very slow'
p212
(lp213
F5.825193835578732
aF-7.866248611111173
asS'buy product'
p214
(lp215
F-7.08533966935737
aF-6.415741768290091
asS'product suggest'
p216
(lp217
F-8.01495034146597
aF5.228117888064478
asS'battery backup'
p218
(lp219
F-7.798741791752897
aF-8.372865060112588
asS'not recommended'
p220
(lp221
F6.350008853649925
aF-7.543031820255239
asS'excellent service'
p222
(lp223
F-7.843397671983135
aF6.829715001286441
asS'very fast'
p224
(lp225
F-7.924812503605781
aF-8.451211111832329
asS'dont waste'
p226
(lp227
F6.685386779404235
aF-7.8180495228538405
asS'great resolution'
p228
(lp229
F-7.8392037880969445
aF6.33345663940217
asS'worth buying'
p230
(lp231
F-7.3987436919381935
aF-8.372865060112588
asS'quality good'
p232
(lp233
F-6.934673752122057
aF5.0175963147511276
asS'guys dont'
p234
(lp235
F6.55038317055053
aF-7.787902559391432
asS'very very'
p236
(lp237
F-8.509775004326938
aF-7.866248611111173
asS'quality not'
p238
(lp239
F5.512602267327738
aF-6.6293566200796095
asS'dont buy'
p240
(lp241
F5.98148961160207
aF-5.702572305433905
asS'not good'
p242
(lp243
F5.346704235589625
aF-5.019469864198225
asS'not great'
p244
(lp245
F5.875805011726709
aF-7.958069319534082
asS'much not'
p246
(lp247
F6.401429657530735
aF-8.375039431346924
asS'price range'
p248
(lp249
F-6.874469117916141
aF6.829715001286441
asS'amazing phone'
p250
(lp251
F-7.809500193889161
aF6.68767737458367
asS'usable across'
p252
(lp253
F-7.785724906086061
aF6.829715001286441
asS'price very'
p254
(lp255
F-7.874469117916142
aF5.822967138379657
asS'money time'
p256
(lp257
F6.074139354210902
aF-7.830779267568934
asS'recommend product'
p258
(lp259
F-6.807354922057604
aF-8.370687406807217
asS'ahead buy'
p260
(lp261
F-7.787902559391432
aF6.019017427854514
asS'very low'
p262
(lp263
F-7.924812503605781
aF-8.451211111832329
asS'without hesitation'
p264
(lp265
F-7.372865060112588
aF6.829715001286441
asS'bag awesome'
p266
(lp267
F-7.811642280460702
aF6.829715001286441
asS'never buy'
p268
(lp269
F6.0451879171614324
aF-7.379378367071262
asS'product used'
p270
(lp271
F-8.599912842187129
aF-8.531381460516313
asS'those looking'
p272
(lp273
F-7.785724906086061
aF6.597609128005615
asS'genuine product'
p274
(lp275
F-7.785724906086061
aF5.527719711259511
asS'quality bag'
p276
(lp277
F-6.197708157955851
aF5.894572606970233
asS'worth price'
p278
(lp279
F-7.076815597050832
aF6.530113178091409
asS'fully satisfied'
p280
(lp281
F-7.372865060112588
aF6.3208650728596
asS'table lamp'
p282
(lp283
F-7.053111336459562
aF6.829715001286441
asS'bag good'
p284
(lp285
F-7.396604781181859
aF5.952738709067336
asS'quality product'
p286
(lp287
F-6.060204634205916
aF-7.1147834472498515
asS'good product'
p288
(lp289
F-5.497499659470817
aF-7.426264754702098
asS'waste money'
p290
(lp291
F6.209142963064606
aF-5.407267764244732
asS'very good'
p292
(lp293
F-4.702420082269333
aF-8.451211111832329
asS'battery good'
p294
(lp295
F-7.798741791752897
aF5.653136885872302
asS'pendrive not'
p296
(lp297
F6.106393344042504
aF-7.7922480296673955
asS'no issues'
p298
(lp299
F-7.068240861312821
aF6.597609128005615
asS'across os'
p300
(lp301
F-7.7922480296673955
aF6.829715001286441
asS'unbelievable price'
p302
(lp303
F-7.372865060112588
aF6.829715001286441
asS'overall good'
p304
(lp305
F-7.79658045046343
aF5.720632835786509
asS'product price'
p306
(lp307
F-7.599912842187128
aF5.527719711259511
asS'quite satisfied'
p308
(lp309
F-7.372865060112588
aF5.966644337678099
asS'stopped working'
p310
(lp311
F-8.368506461507693
aF-7.053111336459562
asS'such low'
p312
(lp313
F-7.790076930625769
aF6.19717359281875
asS'phone super'
p314
(lp315
F-7.8180495228538405
aF6.68767737458367
asS'working not'
p316
(lp317
F6.152061959182553
aF-7.824428435416546
asS'highly recommended'
p318
(lp319
F-7.379378367071262
aF6.298007304810582
asS'using months'
p320
(lp321
F-7.7922480296673955
aF6.545639747880897
asS'worst quality'
p322
(lp323
F5.796559389201239
aF-7.826548487290916
asS'data transfer'
p324
(lp325
F-8.368506461507693
aF-7.787902559391432
asS'not very'
p326
(lp327
F-8.372865060112588
aF-8.543031820255239
asS'product like'
p328
(lp329
F5.313006785959356
aF-7.946418959795157
asS'awesome pendrive'
p330
(lp331
F-7.828665428303016
aF6.429279466099576
asS'design very'
p332
(lp333
F-7.809500193889161
aF5.468746403198157
asS'poor quality'
p334
(lp335
F5.796559389201239
aF-6.400879436282184
asS'useless product'
p336
(lp337
F5.596963907832857
aF-7.79658045046343
asS'excellent buy'
p338
(lp339
F-7.843397671983135
aF6.019017427854514
asS'quality superb'
p340
(lp341
F-7.934673752122057
aF5.894572606970233
asS'battery life'
p342
(lp343
F-7.061776197586691
aF6.530113178091409
asS'quality material'
p344
(lp345
F5.661555780347533
aF-7.851749041416057
asS'price awesome'
p346
(lp347
F-7.874469117916142
aF6.829715001286441
asS'dont twice'
p348
(lp349
F-7.787902559391432
aF6.114278297656213
asS'third class'
p350
(lp351
F6.969343901277735
aF-7.785724906086061
asS'didnt problem'
p352
(lp353
F-7.785724906086061
aF6.545639747880897
asS'ever buy'
p354
(lp355
F5.930068807721261
aF-7.79658045046343
asS'poor product'
p356
(lp357
F5.596963907832857
aF-7.815916935561028
asS'very stylish'
p358
(lp359
F-7.924812503605781
aF5.822967138379657
asS'recommend buy'
p360
(lp361
F-7.807354922057604
aF-8.370687406807217
asS'material very'
p362
(lp363
F5.690190226725028
aF-7.7922480296673955
asS'decent looking'
p364
(lp365
F-7.7922480296673955
aF6.597609128005615
asS'great product'
p366
(lp367
F-6.8392037880969445
aF-8.375039431346924
asS'sleek stylish'
p368
(lp369
F-7.787902559391432
aF6.829715001286441
asS'not worth'
p370
(lp371
F6.047537312204078
aF-7.543031820255239
asS'quality very'
p372
(lp373
F-7.934673752122057
aF-8.436711542137214
asS'good screen'
p374
(lp375
F-8.0
aF5.810701082364563
asS'not working'
p376
(lp377
F6.152061959182553
aF-5.636141224646719
astp378
Rp379
.