ccollections
Counter
p0
((dp1
S'looks nice'
p2
(lp3
F-8.569855608330949
aF-8.531381460516313
asS'not satisfied'
p4
(lp5
F-8.539158811108031
aF-8.727920454563199
asS'dont twice'
p6
(lp7
F-8.539158811108031
aF-8.558420713268665
asS'awesome product'
p8
(lp9
F-8.614709844115207
aF-8.531381460516313
asS'good build'
p10
(lp11
F-8.857980995127573
aF-8.57742882803575
asS'low price'
p12
(lp13
F-8.558420713268665
aF-8.546894459887637
asS'value money'
p14
(lp15
F-8.584962500721156
aF-8.531381460516313
asS'good performance'
p16
(lp17
F-8.857980995127573
aF-8.57742882803575
asS'not too'
p18
(lp19
F-8.539158811108031
aF-8.727920454563199
asS'awesome pendrive'
p20
(lp21
F-8.614709844115207
aF-8.531381460516313
asS'absolutely fantastic'
p22
(lp23
F-8.546894459887637
aF-8.531381460516313
asS'wastage money'
p24
(lp25
F-8.531381460516313
aF-8.539158811108031
asS'product perfect'
p26
(lp27
F-8.873444112515376
aF-8.661778097771986
asS'happy product'
p28
(lp29
F-8.554588851677638
aF-8.539158811108031
asS'great quality'
p30
(lp31
F-8.622051819456377
aF-8.546894459887637
asS'speed usable'
p32
(lp33
F-8.562242424221074
aF-8.558420713268665
asS'easy operate'
p34
(lp35
F-8.581200581924957
aF-8.531381460516313
asS'quality unbelievable'
p36
(lp37
F-8.774787059601174
aF-8.566054038171092
asS'product good'
p38
(lp39
F-8.873444112515376
aF-8.661778097771986
asS'quality excellent'
p40
(lp41
F-8.774787059601174
aF-8.566054038171092
asS'very poor'
p42
(lp43
F-8.75488750216347
aF-8.60733031374961
asS'cheap best'
p44
(lp45
F-8.550746785383243
aF-8.535275376620802
asS'quite satisfied'
p46
(lp47
F-8.543031820255239
aF-8.539158811108031
asS'too good'
p48
(lp49
F-8.554588851677638
aF-8.550746785383243
asS'quality material'
p50
(lp51
F-8.774787059601174
aF-8.566054038171092
asS'nice product'
p52
(lp53
F-8.625708843064466
aF-8.531381460516313
asS'built quality'
p54
(lp55
F-8.543031820255239
aF-8.535275376620802
asS'much satisfied'
p56
(lp57
F-8.543031820255239
aF-8.546894459887637
asS'nothing great'
p58
(lp59
F-8.531381460516313
aF-8.543031820255239
asS'bad product'
p60
(lp61
F-8.531381460516313
aF-8.569855608330949
asS'very useful'
p62
(lp63
F-8.75488750216347
aF-8.60733031374961
asS'very bad'
p64
(lp65
F-8.75488750216347
aF-8.60733031374961
asS'till date'
p66
(lp67
F-8.539158811108031
aF-8.531381460516313
asS'looks very'
p68
(lp69
F-8.569855608330949
aF-8.531381460516313
asS'light weight'
p70
(lp71
F-8.573647187493323
aF-8.531381460516313
asS'serves purpose'
p72
(lp73
F-8.539158811108031
aF-8.531381460516313
asS'product quality'
p74
(lp75
F-8.873444112515376
aF-8.661778097771986
asS'excellent product'
p76
(lp77
F-8.618385502258606
aF-8.531381460516313
asS'highly recommend'
p78
(lp79
F-8.554588851677638
aF-8.535275376620802
asS'product worth'
p80
(lp81
F-8.873444112515376
aF-8.661778097771986
asS'best quality'
p82
(lp83
F-8.654636028527968
aF-8.531381460516313
asS'best price'
p84
(lp85
F-8.654636028527968
aF-8.531381460516313
asS'product best'
p86
(lp87
F-8.873444112515376
aF-8.661778097771986
asS'looking budget'
p88
(lp89
F-8.573647187493323
aF-8.535275376620802
asS'product very'
p90
(lp91
F-8.873444112515376
aF-8.661778097771986
asS'good battery'
p92
(lp93
F-8.857980995127573
aF-8.57742882803575
asS'nice quality'
p94
(lp95
F-8.625708843064466
aF-8.531381460516313
asS'worthy product'
p96
(lp97
F-8.543031820255239
aF-8.539158811108031
asS'build quality'
p98
(lp99
F-8.566054038171092
aF-8.535275376620802
asS'great product'
p100
(lp101
F-8.622051819456377
aF-8.546894459887637
asS'product not'
p102
(lp103
F-8.873444112515376
aF-8.661778097771986
asS'worth money'
p104
(lp105
F-8.592457037268082
aF-8.531381460516313
asS'good looking'
p106
(lp107
F-8.857980995127573
aF-8.57742882803575
asS'good price'
p108
(lp109
F-8.857980995127573
aF-8.57742882803575
asS'satisfied product'
p110
(lp111
F-8.581200581924957
aF-8.554588851677638
asS'image quality'
p112
(lp113
F-8.539158811108031
aF-8.531381460516313
asS'very nice'
p114
(lp115
F-8.75488750216347
aF-8.60733031374961
asS'not much'
p116
(lp117
F-8.539158811108031
aF-8.727920454563199
asS'reasonable price'
p118
(lp119
F-8.543031820255239
aF-8.531381460516313
asS'really good'
p120
(lp121
F-8.57742882803575
aF-8.535275376620802
asS'product great'
p122
(lp123
F-8.873444112515376
aF-8.661778097771986
asS'transfer speed'
p124
(lp125
F-8.539158811108031
aF-8.550746785383243
asS'best phone'
p126
(lp127
F-8.654636028527968
aF-8.531381460516313
asS'great speed'
p128
(lp129
F-8.622051819456377
aF-8.546894459887637
asS'never ever'
p130
(lp131
F-8.539158811108031
aF-8.546894459887637
asS'product excellent'
p132
(lp133
F-8.873444112515376
aF-8.661778097771986
asS'very happy'
p134
(lp135
F-8.75488750216347
aF-8.60733031374961
asS'working not'
p136
(lp137
F-8.562242424221074
aF-8.581200581924957
asS'stylish design'
p138
(lp139
F-8.546894459887637
aF-8.531381460516313
asS'very much'
p140
(lp141
F-8.75488750216347
aF-8.60733031374961
asS'damaged product'
p142
(lp143
F-8.531381460516313
aF-8.543031820255239
asS'working properly'
p144
(lp145
F-8.562242424221074
aF-8.581200581924957
asS'not worthy'
p146
(lp147
F-8.539158811108031
aF-8.727920454563199
asS'good pendrive'
p148
(lp149
F-8.857980995127573
aF-8.57742882803575
asS'good quality'
p150
(lp151
F-8.857980995127573
aF-8.57742882803575
asS'very comfortable'
p152
(lp153
F-8.75488750216347
aF-8.60733031374961
asS'affordable price'
p154
(lp155
F-8.546894459887637
aF-8.531381460516313
asS'speed not'
p156
(lp157
F-8.562242424221074
aF-8.558420713268665
asS'study lamp'
p158
(lp159
F-8.550746785383243
aF-8.531381460516313
asS'very reasonable'
p160
(lp161
F-8.75488750216347
aF-8.60733031374961
asS'very slow'
p162
(lp163
F-8.75488750216347
aF-8.60733031374961
asS'buy product'
p164
(lp165
F-8.581200581924957
aF-8.581200581924957
asS'battery backup'
p166
(lp167
F-8.562242424221074
aF-8.539158811108031
asS'not recommended'
p168
(lp169
F-8.539158811108031
aF-8.727920454563199
asS'very fast'
p170
(lp171
F-8.75488750216347
aF-8.60733031374961
asS'not great'
p172
(lp173
F-8.539158811108031
aF-8.727920454563199
asS'great resolution'
p174
(lp175
F-8.622051819456377
aF-8.546894459887637
asS'worth buying'
p176
(lp177
F-8.592457037268082
aF-8.531381460516313
asS'quality good'
p178
(lp179
F-8.774787059601174
aF-8.566054038171092
asS'dont buy'
p180
(lp181
F-8.539158811108031
aF-8.558420713268665
asS'not good'
p182
(lp183
F-8.539158811108031
aF-8.727920454563199
asS'price range'
p184
(lp185
F-8.682994583681683
aF-8.531381460516313
asS'amazing phone'
p186
(lp187
F-8.581200581924957
aF-8.531381460516313
asS'usable across'
p188
(lp189
F-8.539158811108031
aF-8.531381460516313
asS'price very'
p190
(lp191
F-8.682994583681683
aF-8.531381460516313
asS'recommend product'
p192
(lp193
F-8.569855608330949
aF-8.535275376620802
asS'ahead buy'
p194
(lp195
F-8.543031820255239
aF-8.531381460516313
asS'very low'
p196
(lp197
F-8.75488750216347
aF-8.60733031374961
asS'without hesitation'
p198
(lp199
F-8.539158811108031
aF-8.531381460516313
asS'bag awesome'
p200
(lp201
F-8.584962500721156
aF-8.531381460516313
asS'never buy'
p202
(lp203
F-8.539158811108031
aF-8.546894459887637
asS'product used'
p204
(lp205
F-8.873444112515376
aF-8.661778097771986
asS'those looking'
p206
(lp207
F-8.539158811108031
aF-8.531381460516313
asS'genuine product'
p208
(lp209
F-8.539158811108031
aF-8.531381460516313
asS'quality bag'
p210
(lp211
F-8.774787059601174
aF-8.566054038171092
asS'worth price'
p212
(lp213
F-8.592457037268082
aF-8.531381460516313
asS'fully satisfied'
p214
(lp215
F-8.539158811108031
aF-8.531381460516313
asS'table lamp'
p216
(lp217
F-8.546894459887637
aF-8.531381460516313
asS'bag good'
p218
(lp219
F-8.584962500721156
aF-8.531381460516313
asS'quality product'
p220
(lp221
F-8.774787059601174
aF-8.566054038171092
asS'good product'
p222
(lp223
F-8.857980995127573
aF-8.57742882803575
asS'waste money'
p224
(lp225
F-8.531381460516313
aF-8.550746785383243
asS'very good'
p226
(lp227
F-8.75488750216347
aF-8.60733031374961
asS'battery good'
p228
(lp229
F-8.562242424221074
aF-8.539158811108031
asS'pendrive not'
p230
(lp231
F-8.57742882803575
aF-8.550746785383243
asS'no issues'
p232
(lp233
F-8.558420713268665
aF-8.535275376620802
asS'unbelievable price'
p234
(lp235
F-8.543031820255239
aF-8.531381460516313
asS'overall good'
p236
(lp237
F-8.558420713268665
aF-8.535275376620802
asS'product price'
p238
(lp239
F-8.873444112515376
aF-8.661778097771986
asS'worst product'
p240
(lp241
F-8.531381460516313
aF-8.546894459887637
asS'stopped working'
p242
(lp243
F-8.535275376620802
aF-8.539158811108031
asS'such low'
p244
(lp245
F-8.546894459887637
aF-8.535275376620802
asS'phone super'
p246
(lp247
F-8.59618975614441
aF-8.531381460516313
asS'materials used'
p248
(lp249
F-8.539158811108031
aF-8.531381460516313
asS'highly recommended'
p250
(lp251
F-8.554588851677638
aF-8.535275376620802
asS'data transfer'
p252
(lp253
F-8.535275376620802
aF-8.543031820255239
asS'product like'
p254
(lp255
F-8.873444112515376
aF-8.661778097771986
asS'design very'
p256
(lp257
F-8.581200581924957
aF-8.543031820255239
asS'poor quality'
p258
(lp259
F-8.531381460516313
aF-8.558420713268665
asS'quality superb'
p260
(lp261
F-8.774787059601174
aF-8.566054038171092
asS'battery life'
p262
(lp263
F-8.562242424221074
aF-8.539158811108031
asS'price awesome'
p264
(lp265
F-8.682994583681683
aF-8.531381460516313
asS'easy carry'
p266
(lp267
F-8.581200581924957
aF-8.531381460516313
asS'didnt problem'
p268
(lp269
F-8.539158811108031
aF-8.535275376620802
asS'guys dont'
p270
(lp271
F-8.535275376620802
aF-8.539158811108031
asS'very stylish'
p272
(lp273
F-8.75488750216347
aF-8.60733031374961
asS'recommend buy'
p274
(lp275
F-8.569855608330949
aF-8.535275376620802
asS'decent looking'
p276
(lp277
F-8.550746785383243
aF-8.531381460516313
asS'sleek stylish'
p278
(lp279
F-8.543031820255239
aF-8.531381460516313
asS'across os'
p280
(lp281
F-8.550746785383243
aF-8.531381460516313
asS'quality very'
p282
(lp283
F-8.774787059601174
aF-8.566054038171092
asS'good screen'
p284
(lp285
F-8.857980995127573
aF-8.57742882803575
asS'not working'
p286
(lp287
F-8.539158811108031
aF-8.727920454563199
astp288
Rp289
.