ccollections
Counter
p0
((dp1
S''
p2
(lp3
F-11.124121311829189
aF-11.048486873992337
asS'impression'
p4
(lp5
F-11.124121311829189
aF-9.46352437327118
asS'cheap'
p6
(lp7
F-8.316766389771583
aF-7.878561872550024
asS'sleek'
p8
(lp9
F-9.124121311829187
aF-11.048486873992337
asS'shoe'
p10
(lp11
F-9.124121311829187
aF-9.46352437327118
asS'fine'
p12
(lp13
F-8.539158811108031
aF-11.048486873992337
asS'issues'
p14
(lp15
F-8.802193216941825
aF-11.048486873992337
asS'certainly'
p16
(lp17
F-9.124121311829187
aF-11.048486873992337
asS'slow'
p18
(lp19
F-11.124121311829189
aF-7.46352437327118
asS'enough'
p20
(lp21
F-9.539158811108031
aF-10.048486873992337
asS'should'
p22
(lp23
F-10.124121311829187
aF-10.048486873992337
asS'failed'
p24
(lp25
F-11.124121311829189
aF-9.46352437327118
asS'dissatisfied'
p26
(lp27
F-11.124121311829189
aF-9.46352437327118
asS'pretty'
p28
(lp29
F-9.124121311829187
aF-11.048486873992337
asS'photo'
p30
(lp31
F-9.539158811108031
aF-11.048486873992337
asS'worth'
p32
(lp33
F-6.802193216941825
aF-8.46352437327118
asS'sound'
p34
(lp35
F-9.539158811108031
aF-9.46352437327118
asS'smartphone'
p36
(lp37
F-10.124121311829187
aF-10.048486873992337
asS'premium'
p38
(lp39
F-10.124121311829187
aF-9.46352437327118
asS'worse'
p40
(lp41
F-11.124121311829189
aF-9.46352437327118
asS'touch'
p42
(lp43
F-10.124121311829187
aF-10.048486873992337
asS'very'
p44
(lp45
F-4.914667946200238
aF-4.961024032741997
asS'photography'
p46
(lp47
F-9.539158811108031
aF-11.048486873992337
asS'overall'
p48
(lp49
F-8.124121311829187
aF-9.46352437327118
asS'dell'
p50
(lp51
F-10.124121311829187
aF-9.46352437327118
asS'choice'
p52
(lp53
F-11.124121311829189
aF-8.46352437327118
asS'feels'
p54
(lp55
F-9.539158811108031
aF-11.048486873992337
asS'every'
p56
(lp57
F-10.124121311829187
aF-10.048486873992337
asS'month'
p58
(lp59
F-11.124121311829189
aF-8.726558779104975
asS'condition'
p60
(lp61
F-9.124121311829187
aF-11.048486873992337
asS'cool'
p62
(lp63
F-9.539158811108031
aF-11.048486873992337
asS'impressive'
p64
(lp65
F-9.539158811108031
aF-11.048486873992337
asS'twice'
p66
(lp67
F-9.539158811108031
aF-9.46352437327118
asS'did'
p68
(lp69
F-10.124121311829187
aF-10.048486873992337
asS'standards'
p70
(lp71
F-10.124121311829187
aF-10.048486873992337
asS'large'
p72
(lp73
F-9.539158811108031
aF-11.048486873992337
asS'item'
p74
(lp75
F-11.124121311829189
aF-7.878561872550024
asS'bad'
p76
(lp77
F-11.124121311829189
aF-5.493898022314699
asS'stuff'
p78
(lp79
F-10.124121311829187
aF-10.048486873992337
asS'small'
p80
(lp81
F-8.539158811108031
aF-9.048486873992337
asS'finishing'
p82
(lp83
F-9.539158811108031
aF-11.048486873992337
asS'spent'
p84
(lp85
F-9.539158811108031
aF-10.048486873992337
asS'enjoy'
p86
(lp87
F-9.539158811108031
aF-11.048486873992337
asS'portable'
p88
(lp89
F-9.539158811108031
aF-11.048486873992337
asS'elegant'
p90
(lp91
F-8.802193216941825
aF-11.048486873992337
asS'second'
p92
(lp93
F-9.124121311829187
aF-11.048486873992337
asS'cost'
p94
(lp95
F-9.124121311829187
aF-10.048486873992337
asS'design'
p96
(lp97
F-7.124121311829187
aF-8.726558779104975
asS'best'
p98
(lp99
F-5.876193798385603
aF-11.048486873992337
asS'hesitation'
p100
(lp101
F-8.802193216941825
aF-11.048486873992337
asS'power'
p102
(lp103
F-9.539158811108031
aF-11.048486873992337
asS'pictures'
p104
(lp105
F-11.124121311829189
aF-9.46352437327118
asS'+'
p106
(lp107
F-2.588845935208384
aF-11.048486873992337
asS'safe'
p108
(lp109
F-9.539158811108031
aF-11.048486873992337
asS'please'
p110
(lp111
F-10.124121311829187
aF-7.348047155851244
asS'superb'
p112
(lp113
F-8.316766389771583
aF-11.048486873992337
asS'waiting'
p114
(lp115
F-10.124121311829187
aF-10.048486873992337
asS'worser'
p116
(lp117
F-11.124121311829189
aF-9.46352437327118
asS'reading'
p118
(lp119
F-10.124121311829187
aF-10.048486873992337
asS'ever'
p120
(lp121
F-8.802193216941825
aF-7.241131951934732
asS'across'
p122
(lp123
F-8.539158811108031
aF-11.048486873992337
asS'bought'
p124
(lp125
F-9.124121311829187
aF-8.46352437327118
asS'affordable'
p126
(lp127
F-8.802193216941825
aF-11.048486873992337
asS'screen'
p128
(lp129
F-8.802193216941825
aF-10.048486873992337
asS'never'
p130
(lp131
F-9.539158811108031
aF-7.241131951934732
asS'packing'
p132
(lp133
F-8.802193216941825
aF-10.048486873992337
asS'others'
p134
(lp135
F-10.124121311829187
aF-9.048486873992337
asS'strong'
p136
(lp137
F-9.539158811108031
aF-11.048486873992337
asS'faced'
p138
(lp139
F-10.124121311829187
aF-10.048486873992337
asS'received'
p140
(lp141
F-10.124121311829187
aF-8.726558779104975
asS'great'
p142
(lp143
F-6.169925001442312
aF-8.46352437327118
asS'pendrive'
p144
(lp145
F-7.423681593688095
aF-6.726558779104974
asS'ahead'
p146
(lp147
F-9.124121311829187
aF-11.048486873992337
asS'many'
p148
(lp149
F-11.124121311829189
aF-9.46352437327118
asS'study'
p150
(lp151
F-8.539158811108031
aF-10.048486873992337
asS'according'
p152
(lp153
F-10.124121311829187
aF-10.048486873992337
asS'experience'
p154
(lp155
F-8.802193216941825
aF-8.726558779104975
asS'display'
p156
(lp157
F-8.802193216941825
aF-8.726558779104975
asS'products'
p158
(lp159
F-9.124121311829187
aF-8.46352437327118
asS'atleast'
p160
(lp161
F-11.124121311829189
aF-9.46352437327118
asS'suitable'
p162
(lp163
F-11.124121311829189
aF-9.048486873992337
asS'makes'
p164
(lp165
F-9.539158811108031
aF-11.048486873992337
asS'control'
p166
(lp167
F-9.539158811108031
aF-11.048486873992337
asS'fantastic'
p168
(lp169
F-9.539158811108031
aF-11.048486873992337
asS'love'
p170
(lp171
F-8.316766389771583
aF-11.048486873992337
asS'os'
p172
(lp173
F-9.539158811108031
aF-11.048486873992337
asS'extra'
p174
(lp175
F-11.124121311829189
aF-9.46352437327118
asS'simple'
p176
(lp177
F-9.539158811108031
aF-11.048486873992337
asS'had'
p178
(lp179
F-10.124121311829187
aF-9.048486873992337
asS'prefer'
p180
(lp181
F-10.124121311829187
aF-10.048486873992337
asS'highly'
p182
(lp183
F-8.316766389771583
aF-8.46352437327118
asS'satisfaction'
p184
(lp185
F-9.539158811108031
aF-11.048486873992337
asS'simply'
p186
(lp187
F-8.802193216941825
aF-11.048486873992337
asS'table'
p188
(lp189
F-8.802193216941825
aF-10.048486873992337
asS'total'
p190
(lp191
F-10.124121311829187
aF-10.048486873992337
asS'expensive'
p192
(lp193
F-10.124121311829187
aF-10.048486873992337
asS'everybody'
p194
(lp195
F-11.124121311829189
aF-9.46352437327118
asS'awsome'
p196
(lp197
F-9.539158811108031
aF-11.048486873992337
asS'takes'
p198
(lp199
F-10.124121311829187
aF-9.46352437327118
asS'working'
p200
(lp201
F-7.539158811108031
aF-6.141596278383818
asS'decent'
p202
(lp203
F-8.316766389771583
aF-11.048486873992337
asS'been'
p204
(lp205
F-10.124121311829187
aF-8.726558779104975
asS'mark'
p206
(lp207
F-10.124121311829187
aF-9.048486873992337
asS'camera'
p208
(lp209
F-8.316766389771583
aF-8.048486873992337
asS'dont'
p210
(lp211
F-9.124121311829187
aF-5.961024032741998
asS'memory'
p212
(lp213
F-10.124121311829187
aF-10.048486873992337
asS'expected'
p214
(lp215
F-9.124121311829187
aF-7.878561872550024
asS'waste'
p216
(lp217
F-11.124121311829189
aF-6.141596278383818
asS'more'
p218
(lp219
F-8.802193216941825
aF-8.726558779104975
asS'attractive'
p220
(lp221
F-8.802193216941825
aF-10.048486873992337
asS'life'
p222
(lp223
F-8.802193216941825
aF-8.46352437327118
asS'company'
p224
(lp225
F-10.124121311829187
aF-9.46352437327118
asS'priced'
p226
(lp227
F-9.539158811108031
aF-11.048486873992337
asS'phone'
p228
(lp229
F-6.954196310386876
aF-7.141596278383818
asS'excellent'
p230
(lp231
F-6.21723071622067
aF-11.048486873992337
asS'those'
p232
(lp233
F-9.539158811108031
aF-11.048486873992337
asS'must'
p234
(lp235
F-9.124121311829187
aF-11.048486873992337
asS'customer'
p236
(lp237
F-9.539158811108031
aF-11.048486873992337
asS'disappointing'
p238
(lp239
F-11.124121311829189
aF-9.048486873992337
asS'pendrives'
p240
(lp241
F-9.539158811108031
aF-10.048486873992337
asS'reliable'
p242
(lp243
F-9.124121311829187
aF-9.048486873992337
asS'appearance'
p244
(lp245
F-10.124121311829187
aF-10.048486873992337
asS'budget'
p246
(lp247
F-8.802193216941825
aF-10.048486873992337
asS'value'
p248
(lp249
F-6.802193216941825
aF-11.048486873992337
asS'air'
p250
(lp251
F-11.124121311829189
aF-9.048486873992337
asS'movies'
p252
(lp253
F-10.124121311829187
aF-10.048486873992337
asS'while'
p254
(lp255
F-11.124121311829189
aF-9.46352437327118
asS'install'
p256
(lp257
F-8.802193216941825
aF-11.048486873992337
asS'didnt'
p258
(lp259
F-9.539158811108031
aF-9.46352437327118
asS'beautiful'
p260
(lp261
F-8.802193216941825
aF-11.048486873992337
asS'transcend'
p262
(lp263
F-11.124121311829189
aF-9.048486873992337
asS'compare'
p264
(lp265
F-9.539158811108031
aF-11.048486873992337
asS'purchased'
p266
(lp267
F-11.124121311829189
aF-8.726558779104975
asS'backing'
p268
(lp269
F-11.124121311829189
aF-9.46352437327118
asS'awesome'
p270
(lp271
F-6.369233809665719
aF-11.048486873992337
asS'customers'
p272
(lp273
F-10.124121311829187
aF-10.048486873992337
asS'heating'
p274
(lp275
F-11.124121311829189
aF-8.726558779104975
asS'high'
p276
(lp277
F-9.124121311829187
aF-10.048486873992337
asS'tag'
p278
(lp279
F-9.539158811108031
aF-11.048486873992337
asS'something'
p280
(lp281
F-10.124121311829187
aF-9.048486873992337
asS'tab'
p282
(lp283
F-11.124121311829189
aF-9.46352437327118
asS'wow'
p284
(lp285
F-8.802193216941825
aF-11.048486873992337
asS'happy'
p286
(lp287
F-7.954196310386876
aF-8.048486873992337
asS'needs'
p288
(lp289
F-10.124121311829187
aF-9.46352437327118
asS'defective'
p290
(lp291
F-11.124121311829189
aF-9.048486873992337
asS'pay'
p292
(lp293
F-10.124121311829187
aF-10.048486873992337
asS'make'
p294
(lp295
F-11.124121311829189
aF-9.46352437327118
asS'same'
p296
(lp297
F-10.124121311829187
aF-9.46352437327118
asS'lamp'
p298
(lp299
F-7.539158811108031
aF-10.048486873992337
asS'machine'
p300
(lp301
F-9.124121311829187
aF-10.048486873992337
asS'till'
p302
(lp303
F-9.124121311829187
aF-11.048486873992337
asS'amazing'
p304
(lp305
F-7.217230716220668
aF-11.048486873992337
asS'speaker'
p306
(lp307
F-11.124121311829189
aF-9.46352437327118
asS'low'
p308
(lp309
F-7.954196310386876
aF-7.878561872550024
asS'copying'
p310
(lp311
F-11.124121311829189
aF-9.46352437327118
asS'faulty'
p312
(lp313
F-11.124121311829189
aF-9.46352437327118
asS'upto'
p314
(lp315
F-10.124121311829187
aF-10.048486873992337
asS'product'
p316
(lp317
F-4.047305714778356
aF-4.004092754633883
asS'used'
p318
(lp319
F-8.316766389771583
aF-7.589055255355039
asS'may'
p320
(lp321
F-11.124121311829189
aF-9.048486873992337
asS'friends'
p322
(lp323
F-9.539158811108031
aF-9.048486873992337
asS'damaged'
p324
(lp325
F-11.124121311829189
aF-8.46352437327118
asS'wastage'
p326
(lp327
F-11.124121311829189
aF-8.726558779104975
asS'viewing'
p328
(lp329
F-11.124121311829189
aF-9.46352437327118
asS'brands'
p330
(lp331
F-10.124121311829187
aF-9.46352437327118
asS'purpose'
p332
(lp333
F-9.124121311829187
aF-11.048486873992337
asS'date'
p334
(lp335
F-9.124121311829187
aF-11.048486873992337
asS'such'
p336
(lp337
F-8.802193216941825
aF-8.048486873992337
asS'guys'
p338
(lp339
F-10.124121311829187
aF-8.46352437327118
asS'totally'
p340
(lp341
F-8.802193216941825
aF-9.048486873992337
asS'purchase'
p342
(lp343
F-9.539158811108031
aF-9.048486873992337
asS'lower'
p344
(lp345
F-9.539158811108031
aF-11.048486873992337
asS'third'
p346
(lp347
F-11.124121311829189
aF-9.048486873992337
asS'light'
p348
(lp349
F-7.316766389771583
aF-11.048486873992337
asS'amazon'
p350
(lp351
F-11.124121311829189
aF-9.46352437327118
asS'thought'
p352
(lp353
F-10.124121311829187
aF-9.46352437327118
asS'regretting'
p354
(lp355
F-11.124121311829189
aF-9.46352437327118
asS'materials'
p356
(lp357
F-9.539158811108031
aF-11.048486873992337
asS'suggest'
p358
(lp359
F-8.802193216941825
aF-8.46352437327118
asS'worst'
p360
(lp361
F-11.124121311829189
aF-5.91920385704737
asS'model'
p362
(lp363
F-10.124121311829187
aF-9.46352437327118
asS'operate'
p364
(lp365
F-9.539158811108031
aF-10.048486873992337
asS'cute'
p366
(lp367
F-9.539158811108031
aF-11.048486873992337
asS'shoes'
p368
(lp369
F-10.124121311829187
aF-10.048486873992337
asS'office'
p370
(lp371
F-9.539158811108031
aF-11.048486873992337
asS'less'
p372
(lp373
F-10.124121311829187
aF-9.048486873992337
asS'powerbank'
p374
(lp375
F-9.539158811108031
aF-11.048486873992337
asS'money'
p376
(lp377
F-6.369233809665719
aF-5.91920385704737
asS'laptop'
p378
(lp379
F-9.124121311829187
aF-9.46352437327118
asS'satisfied'
p380
(lp381
F-7.036658470578848
aF-7.048486873992337
asS'looks'
p382
(lp383
F-7.423681593688095
aF-9.46352437327118
asS'mentioned'
p384
(lp385
F-10.124121311829187
aF-10.048486873992337
asS'useful'
p386
(lp387
F-8.539158811108031
aF-9.46352437327118
asS'speed'
p388
(lp389
F-7.802193216941825
aF-7.726558779104974
asS'before'
p390
(lp391
F-10.124121311829187
aF-8.048486873992337
asS'perfect'
p392
(lp393
F-7.664689693191891
aF-11.048486873992337
asS'monitor'
p394
(lp395
F-8.539158811108031
aF-11.048486873992337
asS'tablet'
p396
(lp397
F-11.124121311829189
aF-9.048486873992337
asS'seems'
p398
(lp399
F-10.124121311829187
aF-10.048486873992337
asS'expectations'
p400
(lp401
F-10.124121311829187
aF-10.048486873992337
asS'actually'
p402
(lp403
F-10.124121311829187
aF-10.048486873992337
asS'better'
p404
(lp405
F-8.802193216941825
aF-8.241131951934733
asS'color'
p406
(lp407
F-11.124121311829189
aF-9.46352437327118
asS'book'
p408
(lp409
F-9.539158811108031
aF-11.048486873992337
asS'spacious'
p410
(lp411
F-9.539158811108031
aF-11.048486873992337
asS'easy'
p412
(lp413
F-6.802193216941825
aF-11.048486873992337
asS'usage'
p414
(lp415
F-11.124121311829189
aF-8.726558779104975
asS'has'
p416
(lp417
F-8.539158811108031
aF-8.241131951934733
asS'might'
p418
(lp419
F-11.124121311829189
aF-9.46352437327118
asS'smart'
p420
(lp421
F-9.539158811108031
aF-11.048486873992337
asS'useless'
p422
(lp423
F-11.124121311829189
aF-7.726558779104974
asS'real'
p424
(lp425
F-9.539158811108031
aF-10.048486873992337
asS'usable'
p426
(lp427
F-9.539158811108031
aF-11.048486873992337
asS'good'
p428
(lp429
F-4.135436625057022
aF-5.690934869374253
asS'loss'
p430
(lp431
F-10.124121311829187
aF-9.048486873992337
asS'big'
p432
(lp433
F-10.124121311829187
aF-10.048486873992337
asS'material'
p434
(lp435
F-10.124121311829187
aF-8.46352437327118
asS'dryer'
p436
(lp437
F-11.124121311829189
aF-9.46352437327118
asS'not'
p438
(lp439
F-8.802193216941825
aF-3.839033508363387
asS'using'
p440
(lp441
F-8.539158811108031
aF-9.048486873992337
asS'bit'
p442
(lp443
F-11.124121311829189
aF-9.46352437327118
asS'unique'
p444
(lp445
F-9.539158811108031
aF-11.048486873992337
asS'disappointed'
p446
(lp447
F-11.124121311829189
aF-8.241131951934733
asS'handy'
p448
(lp449
F-8.539158811108031
aF-10.048486873992337
asS'prize'
p450
(lp451
F-9.124121311829187
aF-11.048486873992337
asS'wont'
p452
(lp453
F-11.124121311829189
aF-9.048486873992337
asS'packaging'
p454
(lp455
F-9.539158811108031
aF-11.048486873992337
asS'crisp'
p456
(lp457
F-10.124121311829187
aF-10.048486873992337
asS'like'
p458
(lp459
F-8.802193216941825
aF-7.878561872550024
asS'lost'
p460
(lp461
F-10.124121311829187
aF-9.46352437327118
asS'fully'
p462
(lp463
F-9.124121311829187
aF-11.048486873992337
asS'piece'
p464
(lp465
F-11.124121311829189
aF-9.46352437327118
asS'serves'
p466
(lp467
F-9.539158811108031
aF-11.048486873992337
asS'stopped'
p468
(lp469
F-10.124121311829187
aF-8.241131951934733
asS'reasonable'
p470
(lp471
F-8.802193216941825
aF-11.048486873992337
asS'stylish'
p472
(lp473
F-8.802193216941825
aF-11.048486873992337
asS'works'
p474
(lp475
F-7.954196310386876
aF-11.048486873992337
asS'flipkart'
p476
(lp477
F-9.539158811108031
aF-8.46352437327118
asS'heavy'
p478
(lp479
F-11.124121311829189
aF-9.048486873992337
asS'week'
p480
(lp481
F-9.124121311829187
aF-9.46352437327118
asS'satisfactory'
p482
(lp483
F-11.124121311829189
aF-9.46352437327118
asS'old'
p484
(lp485
F-11.124121311829189
aF-9.46352437327118
asS'weight'
p486
(lp487
F-8.316766389771583
aF-11.048486873992337
asS'absolutely'
p488
(lp489
F-8.802193216941825
aF-11.048486873992337
asS'unbelievable'
p490
(lp491
F-9.124121311829187
aF-11.048486873992337
asS'finish'
p492
(lp493
F-8.802193216941825
aF-10.048486873992337
asS'connect'
p494
(lp495
F-10.124121311829187
aF-10.048486873992337
asS'moreover'
p496
(lp497
F-10.124121311829187
aF-10.048486873992337
asS'really'
p498
(lp499
F-7.217230716220668
aF-8.048486873992337
asS'delivered'
p500
(lp501
F-9.539158811108031
aF-10.048486873992337
asS'bag'
p502
(lp503
F-7.217230716220668
aF-11.048486873992337
asS'fabulous'
p504
(lp505
F-9.539158811108031
aF-11.048486873992337
asS'per'
p506
(lp507
F-11.124121311829189
aF-9.048486873992337
asS'seller'
p508
(lp509
F-10.124121311829187
aF-9.46352437327118
asS'looking'
p510
(lp511
F-7.423681593688095
aF-9.46352437327118
asS'everything'
p512
(lp513
F-9.539158811108031
aF-11.048486873992337
asS'seriously'
p514
(lp515
F-10.124121311829187
aF-10.048486873992337
asS'does'
p516
(lp517
F-10.124121311829187
aF-10.048486873992337
asS'print'
p518
(lp519
F-9.124121311829187
aF-11.048486873992337
asS'got'
p520
(lp521
F-9.124121311829187
aF-9.46352437327118
asS'correct'
p522
(lp523
F-10.124121311829187
aF-10.048486873992337
asS'liked'
p524
(lp525
F-9.124121311829187
aF-11.048486873992337
asS'considering'
p526
(lp527
F-11.124121311829189
aF-9.46352437327118
asS'pathetic'
p528
(lp529
F-11.124121311829189
aF-8.241131951934733
asS'quite'
p530
(lp531
F-9.124121311829187
aF-8.726558779104975
asS'quick'
p532
(lp533
F-9.124121311829187
aF-11.048486873992337
asS'completely'
p534
(lp535
F-11.124121311829189
aF-9.46352437327118
asS'worthy'
p536
(lp537
F-9.124121311829187
aF-9.46352437327118
asS'super'
p538
(lp539
F-7.664689693191891
aF-11.048486873992337
asS'usb'
p540
(lp541
F-11.124121311829189
aF-9.46352437327118
asS'ok'
p542
(lp543
F-11.124121311829189
aF-9.46352437327118
asS'angle'
p544
(lp545
F-10.124121311829187
aF-10.048486873992337
asS'package'
p546
(lp547
F-10.124121311829187
aF-10.048486873992337
asS'months'
p548
(lp549
F-9.539158811108031
aF-8.048486873992337
asS'days'
p550
(lp551
F-10.124121311829187
aF-10.048486873992337
asS'hot'
p552
(lp553
F-11.124121311829189
aF-9.048486873992337
asS'thing'
p554
(lp555
F-9.124121311829187
aF-10.048486873992337
asS'range'
p556
(lp557
F-8.316766389771583
aF-11.048486873992337
asS'important'
p558
(lp559
F-9.539158811108031
aF-11.048486873992337
asS'transfer'
p560
(lp561
F-9.539158811108031
aF-8.46352437327118
asS'backup'
p562
(lp563
F-9.539158811108031
aF-9.46352437327118
asS'major'
p564
(lp565
F-11.124121311829189
aF-9.048486873992337
asS'features'
p566
(lp567
F-9.124121311829187
aF-11.048486873992337
asS'feel'
p568
(lp569
F-10.124121311829187
aF-8.726558779104975
asS'image'
p570
(lp571
F-9.539158811108031
aF-11.048486873992337
asS'within'
p572
(lp573
F-11.124121311829189
aF-9.048486873992337
asS'build'
p574
(lp575
F-7.664689693191891
aF-10.048486873992337
asS'device'
p576
(lp577
F-9.539158811108031
aF-10.048486873992337
asS'doesnt'
p578
(lp579
F-10.124121311829187
aF-9.048486873992337
asS'choose'
p580
(lp581
F-11.124121311829189
aF-9.46352437327118
asS'tiny'
p582
(lp583
F-9.539158811108031
aF-10.048486873992337
asS'another'
p584
(lp585
F-11.124121311829189
aF-9.048486873992337
asS'heated'
p586
(lp587
F-11.124121311829189
aF-9.46352437327118
asS'carry'
p588
(lp589
F-8.802193216941825
aF-11.048486873992337
asS'clarity'
p590
(lp591
F-8.539158811108031
aF-11.048486873992337
asS'quality'
p592
(lp593
F-4.802193216941825
aF-5.556633777662662
asS'size'
p594
(lp595
F-8.316766389771583
aF-9.46352437327118
asS'impressed'
p596
(lp597
F-9.124121311829187
aF-11.048486873992337
asS'deal'
p598
(lp599
F-9.124121311829187
aF-11.048486873992337
asS'service'
p600
(lp601
F-8.802193216941825
aF-9.46352437327118
asS'data'
p602
(lp603
F-10.124121311829187
aF-8.726558779104975
asS'durable'
p604
(lp605
F-10.124121311829187
aF-10.048486873992337
asS'fast'
p606
(lp607
F-8.316766389771583
aF-9.46352437327118
asS'anyone'
p608
(lp609
F-10.124121311829187
aF-9.048486873992337
asS'much'
p610
(lp611
F-9.124121311829187
aF-8.241131951934733
asS'too'
p612
(lp613
F-8.124121311829187
aF-7.878561872550024
asS'lot'
p614
(lp615
F-10.124121311829187
aF-9.46352437327118
asS'recommendable'
p616
(lp617
F-10.124121311829187
aF-10.048486873992337
asS'perfectly'
p618
(lp619
F-9.124121311829187
aF-11.048486873992337
asS'gives'
p620
(lp621
F-8.802193216941825
aF-11.048486873992337
asS'function'
p622
(lp623
F-10.124121311829187
aF-10.048486873992337
asS'selling'
p624
(lp625
F-11.124121311829189
aF-9.048486873992337
asS'battery'
p626
(lp627
F-7.954196310386876
aF-8.46352437327118
asS'complete'
p628
(lp629
F-10.124121311829187
aF-9.048486873992337
asS'brand'
p630
(lp631
F-8.802193216941825
aF-10.048486873992337
asS'recommend'
p632
(lp633
F-7.124121311829187
aF-7.726558779104974
asS'delivery'
p634
(lp635
F-7.802193216941825
aF-9.46352437327118
asS'properly'
p636
(lp637
F-11.124121311829189
aF-7.589055255355039
asS'wasted'
p638
(lp639
F-11.124121311829189
aF-9.46352437327118
asS'believe'
p640
(lp641
F-9.539158811108031
aF-11.048486873992337
asS'buying'
p642
(lp643
F-8.802193216941825
aF-8.46352437327118
asS'loved'
p644
(lp645
F-8.539158811108031
aF-11.048486873992337
asS'lenovo'
p646
(lp647
F-11.124121311829189
aF-8.726558779104975
asS'effective'
p648
(lp649
F-9.539158811108031
aF-10.048486873992337
asS'samsung'
p650
(lp651
F-9.539158811108031
aF-11.048486873992337
asS'smooth'
p652
(lp653
F-9.124121311829187
aF-11.048486873992337
asS'below'
p654
(lp655
F-10.124121311829187
aF-10.048486873992337
asS'future'
p656
(lp657
F-11.124121311829189
aF-9.46352437327118
asS'lover'
p658
(lp659
F-11.124121311829189
aF-9.46352437327118
asS'video'
p660
(lp661
F-10.124121311829187
aF-9.46352437327118
asS'problem'
p662
(lp663
F-9.124121311829187
aF-9.048486873992337
asS'providing'
p664
(lp665
F-11.124121311829189
aF-9.46352437327118
asS'dissapointed'
p666
(lp667
F-11.124121311829189
aF-9.46352437327118
asS'expect'
p668
(lp669
F-11.124121311829189
aF-9.46352437327118
asS'comfortable'
p670
(lp671
F-8.316766389771583
aF-9.46352437327118
asS'buy'
p672
(lp673
F-6.539158811108032
aF-5.2935993718288685
asS'seen'
p674
(lp675
F-10.124121311829187
aF-9.048486873992337
asS'again'
p676
(lp677
F-9.539158811108031
aF-9.46352437327118
asS'compared'
p678
(lp679
F-10.124121311829187
aF-8.726558779104975
asS'genuine'
p680
(lp681
F-9.539158811108031
aF-11.048486873992337
asS'built'
p682
(lp683
F-9.124121311829187
aF-10.048486873992337
asS'no'
p684
(lp685
F-7.423681593688095
aF-9.46352437327118
asS'convenient'
p686
(lp687
F-9.539158811108031
aF-11.048486873992337
asS'-'
p688
(lp689
F-11.124121311829189
aF-2.593159653687776
asS'recommended'
p690
(lp691
F-8.802193216941825
aF-8.241131951934733
asS'without'
p692
(lp693
F-8.539158811108031
aF-11.048486873992337
asS'take'
p694
(lp695
F-11.124121311829189
aF-9.46352437327118
asS'performance'
p696
(lp697
F-7.423681593688095
aF-6.8005593605487515
asS'hp'
p698
(lp699
F-10.124121311829187
aF-9.46352437327118
asS'nice'
p700
(lp701
F-5.994838294884221
aF-11.048486873992337
asS'poor'
p702
(lp703
F-11.124121311829189
aF-6.46352437327118
asS'picture'
p704
(lp705
F-8.124121311829187
aF-9.46352437327118
asS'price'
p706
(lp707
F-5.539158811108031
aF-11.048486873992337
asS'regular'
p708
(lp709
F-10.124121311829187
aF-10.048486873992337
asS'nothing'
p710
(lp711
F-10.124121311829187
aF-8.726558779104975
asS'capacity'
p712
(lp713
F-9.539158811108031
aF-9.46352437327118
asS'extremely'
p714
(lp715
F-9.539158811108031
aF-9.46352437327118
asS'class'
p716
(lp717
F-11.124121311829189
aF-9.048486873992337
asS'audio'
p718
(lp719
F-10.124121311829187
aF-10.048486873992337
asS'cheated'
p720
(lp721
F-11.124121311829189
aF-9.46352437327118
asS'sturdy'
p722
(lp723
F-8.802193216941825
aF-11.048486873992337
asS'mobile'
p724
(lp725
F-9.124121311829187
aF-8.241131951934733
asS'average'
p726
(lp727
F-11.124121311829189
aF-8.46352437327118
asS'space'
p728
(lp729
F-9.539158811108031
aF-10.048486873992337
asS'request'
p730
(lp731
F-11.124121311829189
aF-9.048486873992337
asS'drive'
p732
(lp733
F-9.539158811108031
aF-11.048486873992337
asS'definitely'
p734
(lp735
F-9.539158811108031
aF-11.048486873992337
asS'time'
p736
(lp737
F-10.124121311829187
aF-8.048486873992337
asS'far'
p738
(lp739
F-8.124121311829187
aF-11.048486873992337
asS'resolution'
p740
(lp741
F-9.124121311829187
aF-10.048486873992337
asS'scrap'
p742
(lp743
F-11.124121311829189
aF-9.46352437327118
astp744
Rp745
.