ccollections
Counter
p0
((dp1
S''
p2
(lp3
F-8.599912842187129
aF-8.562242424221074
asS'product'
p4
(lp5
F-7.599912842187128
aF-7.562242424221073
asS'worst'
p6
(lp7
F-7.599912842187128
aF-7.562242424221073
asS'very'
p8
(lp9
F-8.599912842187129
aF-6.977279923499917
asS'+'
p10
(lp11
F-6.599912842187128
aF-8.562242424221074
asS'gives'
p12
(lp13
F-7.014950341465972
aF-8.562242424221074
astp14
Rp15
.