ccollections
Counter
p0
((dp1
S''
p2
(lp3
F-10.99929538702341
aF-10.868050853745158
asS'impression'
p4
(lp5
F-10.99929538702341
aF-9.283088353024002
asS'cheap'
p6
(lp7
F-8.414332886302255
aF-7.698125852302845
asS'sleek'
p8
(lp9
F-8.99929538702341
aF-10.868050853745158
asS'shoe'
p10
(lp11
F-10.99929538702341
aF-9.283088353024002
asS'fine'
p12
(lp13
F-8.414332886302255
aF-10.868050853745158
asS'issues'
p14
(lp15
F-8.677367292136049
aF-10.868050853745158
asS'certainly'
p16
(lp17
F-9.414332886302255
aF-10.868050853745158
asS'slow'
p18
(lp19
F-10.99929538702341
aF-7.698125852302845
asS'nice'
p20
(lp21
F-5.911832545773071
aF-10.868050853745158
asS'enough'
p22
(lp23
F-9.414332886302255
aF-10.868050853745158
asS'should'
p24
(lp25
F-9.99929538702341
aF-9.868050853745158
asS'failed'
p26
(lp27
F-10.99929538702341
aF-9.283088353024002
asS'device'
p28
(lp29
F-9.414332886302255
aF-9.868050853745158
asS'pretty'
p30
(lp31
F-8.99929538702341
aF-10.868050853745158
asS'money'
p32
(lp33
F-6.355439197248686
aF-5.96116025813664
asS'worth'
p34
(lp35
F-6.911832545773071
aF-8.546122758857797
asS'customer'
p36
(lp37
F-9.414332886302255
aF-10.868050853745158
asS'premium'
p38
(lp39
F-9.99929538702341
aF-9.283088353024002
asS'far'
p40
(lp41
F-8.414332886302255
aF-10.868050853745158
asS'photography'
p42
(lp43
F-9.414332886302255
aF-10.868050853745158
asS'overall'
p44
(lp45
F-8.191940464965807
aF-9.283088353024002
asS'dell'
p46
(lp47
F-9.99929538702341
aF-9.283088353024002
asS'choice'
p48
(lp49
F-10.99929538702341
aF-8.283088353024002
asS'amazon'
p50
(lp51
F-10.99929538702341
aF-9.283088353024002
asS'worst'
p52
(lp53
F-10.99929538702341
aF-6.010069858617586
asS'month'
p54
(lp55
F-10.99929538702341
aF-8.546122758857797
asS'condition'
p56
(lp57
F-8.99929538702341
aF-10.868050853745158
asS'prize'
p58
(lp59
F-8.99929538702341
aF-10.868050853745158
asS'large'
p60
(lp61
F-9.414332886302255
aF-10.868050853745158
asS'twice'
p62
(lp63
F-9.99929538702341
aF-9.283088353024002
asS'bad'
p64
(lp65
F-10.99929538702341
aF-5.5104988491270745
asS'stuff'
p66
(lp67
F-9.99929538702341
aF-9.868050853745158
asS'small'
p68
(lp69
F-8.414332886302255
aF-8.868050853745158
asS'finishing'
p70
(lp71
F-9.414332886302255
aF-10.868050853745158
asS'features'
p72
(lp73
F-9.414332886302255
aF-10.868050853745158
asS'portable'
p74
(lp75
F-9.414332886302255
aF-10.868050853745158
asS'touch'
p76
(lp77
F-9.99929538702341
aF-9.868050853745158
asS'second'
p78
(lp79
F-8.99929538702341
aF-10.868050853745158
asS'fabulous'
p80
(lp81
F-9.414332886302255
aF-10.868050853745158
asS'design'
p82
(lp83
F-6.999295387023412
aF-8.546122758857797
asS'best'
p84
(lp85
F-6.045099076636535
aF-10.868050853745158
asS'capacity'
p86
(lp87
F-9.414332886302255
aF-9.283088353024002
asS'pathetic'
p88
(lp89
F-10.99929538702341
aF-8.060695931687555
asS'pictures'
p90
(lp91
F-10.99929538702341
aF-9.283088353024002
asS'scrap'
p92
(lp93
F-10.99929538702341
aF-9.283088353024002
asS'please'
p94
(lp95
F-9.99929538702341
aF-7.283088353024001
asS'superb'
p96
(lp97
F-8.191940464965807
aF-10.868050853745158
asS'waiting'
p98
(lp99
F-9.99929538702341
aF-9.868050853745158
asS'worser'
p100
(lp101
F-10.99929538702341
aF-9.283088353024002
asS'reading'
p102
(lp103
F-9.99929538702341
aF-9.868050853745158
asS'ever'
p104
(lp105
F-8.99929538702341
aF-7.408619235107861
asS'across'
p106
(lp107
F-8.677367292136049
aF-10.868050853745158
asS'bought'
p108
(lp109
F-8.99929538702341
aF-8.283088353024002
asS'affordable'
p110
(lp111
F-8.99929538702341
aF-10.868050853745158
asS'gives'
p112
(lp113
F-8.677367292136049
aF-10.868050853745158
asS'screen'
p114
(lp115
F-8.99929538702341
aF-9.868050853745158
asS'never'
p116
(lp117
F-9.99929538702341
aF-7.698125852302845
asS'packing'
p118
(lp119
F-8.677367292136049
aF-9.868050853745158
asS'others'
p120
(lp121
F-9.99929538702341
aF-8.868050853745158
asS'strong'
p122
(lp123
F-9.414332886302255
aF-10.868050853745158
asS'received'
p124
(lp125
F-9.99929538702341
aF-8.546122758857797
asS'great'
p126
(lp127
F-6.141314391895839
aF-8.546122758857797
asS'pendrive'
p128
(lp129
F-7.414332886302255
aF-6.698125852302846
asS'ahead'
p130
(lp131
F-8.99929538702341
aF-10.868050853745158
asS'many'
p132
(lp133
F-10.99929538702341
aF-9.283088353024002
asS'study'
p134
(lp135
F-8.414332886302255
aF-9.868050853745158
asS'according'
p136
(lp137
F-9.99929538702341
aF-9.868050853745158
asS'experience'
p138
(lp139
F-8.99929538702341
aF-8.868050853745158
asS'dissapointed'
p140
(lp141
F-10.99929538702341
aF-9.283088353024002
asS'products'
p142
(lp143
F-8.99929538702341
aF-8.283088353024002
asS'atleast'
p144
(lp145
F-10.99929538702341
aF-9.283088353024002
asS'+'
p146
(lp147
F-2.602690605841552
aF-10.868050853745158
asS'suitable'
p148
(lp149
F-10.99929538702341
aF-8.868050853745158
asS'control'
p150
(lp151
F-9.414332886302255
aF-10.868050853745158
asS'liked'
p152
(lp153
F-8.99929538702341
aF-10.868050853745158
asS'love'
p154
(lp155
F-8.414332886302255
aF-10.868050853745158
asS'battery'
p156
(lp157
F-7.8293703855810985
aF-8.283088353024002
asS'seems'
p158
(lp159
F-9.99929538702341
aF-9.868050853745158
asS'prefer'
p160
(lp161
F-9.99929538702341
aF-9.868050853745158
asS'highly'
p162
(lp163
F-8.414332886302255
aF-8.283088353024002
asS'satisfaction'
p164
(lp165
F-9.414332886302255
aF-10.868050853745158
asS'simply'
p166
(lp167
F-8.99929538702341
aF-10.868050853745158
asS'moreover'
p168
(lp169
F-9.99929538702341
aF-9.868050853745158
asS'total'
p170
(lp171
F-9.99929538702341
aF-9.868050853745158
asS'expensive'
p172
(lp173
F-9.99929538702341
aF-9.868050853745158
asS'considering'
p174
(lp175
F-10.99929538702341
aF-9.283088353024002
asS'awsome'
p176
(lp177
F-9.414332886302255
aF-10.868050853745158
asS'usb'
p178
(lp179
F-10.99929538702341
aF-9.283088353024002
asS'working'
p180
(lp181
F-7.414332886302255
aF-6.283088353024001
asS'decent'
p182
(lp183
F-8.191940464965807
aF-10.868050853745158
asS'been'
p184
(lp185
F-9.99929538702341
aF-8.546122758857797
asS'mark'
p186
(lp187
F-9.99929538702341
aF-9.283088353024002
asS'much'
p188
(lp189
F-8.99929538702341
aF-8.283088353024002
asS'recommend'
p190
(lp191
F-6.999295387023412
aF-7.698125852302845
asS'expected'
p192
(lp193
F-8.677367292136049
aF-7.868050853745158
asS'waste'
p194
(lp195
F-10.99929538702341
aF-6.010069858617586
asS'more'
p196
(lp197
F-8.677367292136049
aF-8.546122758857797
asS'attractive'
p198
(lp199
F-8.677367292136049
aF-9.868050853745158
asS'life'
p200
(lp201
F-8.677367292136049
aF-8.868050853745158
asS'company'
p202
(lp203
F-9.99929538702341
aF-9.283088353024002
asS'priced'
p204
(lp205
F-9.414332886302255
aF-10.868050853745158
asS'phone'
p206
(lp207
F-8.191940464965807
aF-7.546122758857796
asS'excellent'
p208
(lp209
F-6.191940464965807
aF-10.868050853745158
asS'those'
p210
(lp211
F-9.414332886302255
aF-10.868050853745158
asS'must'
p212
(lp213
F-9.414332886302255
aF-10.868050853745158
asS'sound'
p214
(lp215
F-9.414332886302255
aF-9.868050853745158
asS'disappointing'
p216
(lp217
F-10.99929538702341
aF-9.283088353024002
asS'pendrives'
p218
(lp219
F-9.414332886302255
aF-9.868050853745158
asS'reliable'
p220
(lp221
F-8.99929538702341
aF-9.283088353024002
asS'appearance'
p222
(lp223
F-9.99929538702341
aF-9.868050853745158
asS'budget'
p224
(lp225
F-8.99929538702341
aF-9.868050853745158
asS'value'
p226
(lp227
F-6.7513678735798255
aF-10.868050853745158
asS'air'
p228
(lp229
F-10.99929538702341
aF-8.868050853745158
asS'movies'
p230
(lp231
F-9.99929538702341
aF-9.868050853745158
asS'while'
p232
(lp233
F-10.99929538702341
aF-9.283088353024002
asS'install'
p234
(lp235
F-8.677367292136049
aF-10.868050853745158
asS'didnt'
p236
(lp237
F-9.414332886302255
aF-9.283088353024002
asS'beautiful'
p238
(lp239
F-8.99929538702341
aF-10.868050853745158
asS'transcend'
p240
(lp241
F-10.99929538702341
aF-8.868050853745158
asS'purchased'
p242
(lp243
F-10.99929538702341
aF-9.283088353024002
asS'backing'
p244
(lp245
F-10.99929538702341
aF-9.283088353024002
asS'awesome'
p246
(lp247
F-6.539863768386114
aF-10.868050853745158
asS'usable'
p248
(lp249
F-9.414332886302255
aF-10.868050853745158
asS'high'
p250
(lp251
F-8.99929538702341
aF-10.868050853745158
asS'tag'
p252
(lp253
F-9.414332886302255
aF-10.868050853745158
asS'something'
p254
(lp255
F-9.99929538702341
aF-9.283088353024002
asS'tab'
p256
(lp257
F-10.99929538702341
aF-9.283088353024002
asS'happy'
p258
(lp259
F-7.8293703855810985
aF-8.060695931687555
asS'needs'
p260
(lp261
F-9.99929538702341
aF-9.868050853745158
asS'defective'
p262
(lp263
F-10.99929538702341
aF-9.283088353024002
asS'suggest'
p264
(lp265
F-8.99929538702341
aF-8.546122758857797
asS'same'
p266
(lp267
F-9.99929538702341
aF-9.283088353024002
asS'lamp'
p268
(lp269
F-7.414332886302255
aF-9.868050853745158
asS'machine'
p270
(lp271
F-8.99929538702341
aF-9.868050853745158
asS'very'
p272
(lp273
F-4.911832545773072
aF-4.985407804383317
asS'amazing'
p274
(lp275
F-7.539863768386113
aF-10.868050853745158
asS'copying'
p276
(lp277
F-10.99929538702341
aF-9.283088353024002
asS'faulty'
p278
(lp279
F-10.99929538702341
aF-9.283088353024002
asS'week'
p280
(lp281
F-9.414332886302255
aF-9.283088353024002
asS'unbelievable'
p282
(lp283
F-8.99929538702341
aF-10.868050853745158
asS'finish'
p284
(lp285
F-8.99929538702341
aF-9.868050853745158
asS'may'
p286
(lp287
F-10.99929538702341
aF-9.283088353024002
asS'friends'
p288
(lp289
F-9.414332886302255
aF-8.868050853745158
asS'damaged'
p290
(lp291
F-10.99929538702341
aF-8.546122758857797
asS'wastage'
p292
(lp293
F-10.99929538702341
aF-9.283088353024002
asS'viewing'
p294
(lp295
F-10.99929538702341
aF-9.283088353024002
asS'purpose'
p296
(lp297
F-8.99929538702341
aF-10.868050853745158
asS'genuine'
p298
(lp299
F-9.414332886302255
aF-10.868050853745158
asS'totally'
p300
(lp301
F-8.99929538702341
aF-8.868050853745158
asS'purchase'
p302
(lp303
F-9.99929538702341
aF-9.283088353024002
asS'safe'
p304
(lp305
F-9.414332886302255
aF-10.868050853745158
asS'third'
p306
(lp307
F-10.99929538702341
aF-9.283088353024002
asS'backup'
p308
(lp309
F-9.414332886302255
aF-9.283088353024002
asS'spent'
p310
(lp311
F-9.99929538702341
aF-9.868050853745158
asS'thought'
p312
(lp313
F-9.99929538702341
aF-9.868050853745158
asS'regretting'
p314
(lp315
F-10.99929538702341
aF-9.283088353024002
asS'materials'
p316
(lp317
F-9.414332886302255
aF-10.868050853745158
asS'every'
p318
(lp319
F-9.99929538702341
aF-9.868050853745158
asS'audio'
p320
(lp321
F-9.99929538702341
aF-9.868050853745158
asS'cute'
p322
(lp323
F-9.414332886302255
aF-10.868050853745158
asS'office'
p324
(lp325
F-9.414332886302255
aF-10.868050853745158
asS'less'
p326
(lp327
F-9.99929538702341
aF-8.868050853745158
asS'powerbank'
p328
(lp329
F-9.414332886302255
aF-10.868050853745158
asS'photo'
p330
(lp331
F-9.414332886302255
aF-10.868050853745158
asS'laptop'
p332
(lp333
F-8.99929538702341
aF-9.283088353024002
asS'satisfied'
p334
(lp335
F-6.911832545773071
aF-7.167611135604066
asS'looks'
p336
(lp337
F-7.539863768386113
aF-9.283088353024002
asS'mentioned'
p338
(lp339
F-9.99929538702341
aF-9.868050853745158
asS'useful'
p340
(lp341
F-8.677367292136049
aF-9.283088353024002
asS'speed'
p342
(lp343
F-7.8293703855810985
aF-8.546122758857797
asS'before'
p344
(lp345
F-9.99929538702341
aF-8.060695931687555
asS'perfect'
p346
(lp347
F-7.539863768386113
aF-10.868050853745158
asS'monitor'
p348
(lp349
F-8.414332886302255
aF-10.868050853745158
asS'tablet'
p350
(lp351
F-10.99929538702341
aF-8.868050853745158
asS'had'
p352
(lp353
F-9.99929538702341
aF-8.868050853745158
asS'expectations'
p354
(lp355
F-9.99929538702341
aF-9.868050853745158
asS'actually'
p356
(lp357
F-9.99929538702341
aF-9.868050853745158
asS'better'
p358
(lp359
F-8.677367292136049
aF-8.283088353024002
asS'simple'
p360
(lp361
F-9.414332886302255
aF-10.868050853745158
asS'spacious'
p362
(lp363
F-9.414332886302255
aF-10.868050853745158
asS'easy'
p364
(lp365
F-6.7513678735798255
aF-10.868050853745158
asS'usage'
p366
(lp367
F-10.99929538702341
aF-8.546122758857797
asS'has'
p368
(lp369
F-8.677367292136049
aF-8.060695931687555
asS'smart'
p370
(lp371
F-9.414332886302255
aF-10.868050853745158
asS'useless'
p372
(lp373
F-10.99929538702341
aF-7.546122758857796
asS'real'
p374
(lp375
F-9.414332886302255
aF-9.868050853745158
asS'customers'
p376
(lp377
F-9.99929538702341
aF-9.868050853745158
asS'good'
p378
(lp379
F-4.104477623715467
aF-5.658597488116208
asS'material'
p380
(lp381
F-9.99929538702341
aF-8.283088353024002
asS'dryer'
p382
(lp383
F-10.99929538702341
aF-9.283088353024002
asS'not'
p384
(lp385
F-8.414332886302255
aF-3.834627852207708
asS'using'
p386
(lp387
F-8.677367292136049
aF-8.868050853745158
asS'bit'
p388
(lp389
F-10.99929538702341
aF-9.283088353024002
asS'unique'
p390
(lp391
F-9.414332886302255
aF-10.868050853745158
asS'disappointed'
p392
(lp393
F-10.99929538702341
aF-8.283088353024002
asS'handy'
p394
(lp395
F-8.414332886302255
aF-9.868050853745158
asS'wont'
p396
(lp397
F-10.99929538702341
aF-9.283088353024002
asS'loss'
p398
(lp399
F-9.99929538702341
aF-8.868050853745158
asS'crisp'
p400
(lp401
F-9.99929538702341
aF-9.868050853745158
asS'like'
p402
(lp403
F-8.677367292136049
aF-8.060695931687555
asS'lost'
p404
(lp405
F-9.99929538702341
aF-9.283088353024002
asS'fully'
p406
(lp407
F-8.99929538702341
aF-10.868050853745158
asS'serves'
p408
(lp409
F-9.414332886302255
aF-10.868050853745158
asS'facing'
p410
(lp411
F-9.99929538702341
aF-9.868050853745158
asS'stopped'
p412
(lp413
F-9.99929538702341
aF-8.283088353024002
asS'reasonable'
p414
(lp415
F-8.414332886302255
aF-10.868050853745158
asS'stylish'
p416
(lp417
F-8.677367292136049
aF-10.868050853745158
asS'works'
p418
(lp419
F-7.999295387023412
aF-10.868050853745158
asS'flipkart'
p420
(lp421
F-9.414332886302255
aF-8.546122758857797
asS'heavy'
p422
(lp423
F-10.99929538702341
aF-8.868050853745158
asS'upto'
p424
(lp425
F-9.99929538702341
aF-9.868050853745158
asS'satisfactory'
p426
(lp427
F-10.99929538702341
aF-9.283088353024002
asS'old'
p428
(lp429
F-10.99929538702341
aF-9.283088353024002
asS'weight'
p430
(lp431
F-8.414332886302255
aF-10.868050853745158
asS'absolutely'
p432
(lp433
F-9.414332886302255
aF-10.868050853745158
asS'product'
p434
(lp435
F-3.9769275739949563
aF-4.010069858617586
asS'used'
p436
(lp437
F-8.414332886302255
aF-7.698125852302845
asS'connect'
p438
(lp439
F-9.99929538702341
aF-9.868050853745158
asS'table'
p440
(lp441
F-8.677367292136049
aF-9.868050853745158
asS'really'
p442
(lp443
F-7.092404791414893
aF-7.868050853745158
asS'delivered'
p444
(lp445
F-9.414332886302255
aF-9.868050853745158
asS'item'
p446
(lp447
F-10.99929538702341
aF-7.698125852302845
asS'per'
p448
(lp449
F-10.99929538702341
aF-9.283088353024002
asS'seller'
p450
(lp451
F-9.99929538702341
aF-9.283088353024002
asS'looking'
p452
(lp453
F-7.539863768386113
aF-9.283088353024002
asS'everything'
p454
(lp455
F-9.414332886302255
aF-10.868050853745158
asS'seriously'
p456
(lp457
F-9.99929538702341
aF-9.868050853745158
asS'print'
p458
(lp459
F-8.99929538702341
aF-10.868050853745158
asS'got'
p460
(lp461
F-9.99929538702341
aF-9.283088353024002
asS'correct'
p462
(lp463
F-9.99929538702341
aF-9.868050853745158
asS'power'
p464
(lp465
F-9.414332886302255
aF-10.868050853745158
asS'quite'
p466
(lp467
F-8.99929538702341
aF-8.868050853745158
asS'quick'
p468
(lp469
F-8.99929538702341
aF-10.868050853745158
asS'completely'
p470
(lp471
F-10.99929538702341
aF-9.283088353024002
asS'worthy'
p472
(lp473
F-8.99929538702341
aF-9.868050853745158
asS'super'
p474
(lp475
F-8.191940464965807
aF-10.868050853745158
asS'takes'
p476
(lp477
F-10.99929538702341
aF-9.283088353024002
asS'ok'
p478
(lp479
F-10.99929538702341
aF-9.283088353024002
asS'package'
p480
(lp481
F-9.99929538702341
aF-9.868050853745158
asS'months'
p482
(lp483
F-9.414332886302255
aF-8.060695931687555
asS'hot'
p484
(lp485
F-10.99929538702341
aF-8.868050853745158
asS'thing'
p486
(lp487
F-9.99929538702341
aF-9.868050853745158
asS'range'
p488
(lp489
F-8.414332886302255
aF-10.868050853745158
asS'regular'
p490
(lp491
F-9.99929538702341
aF-9.868050853745158
asS'os'
p492
(lp493
F-9.414332886302255
aF-10.868050853745158
asS'major'
p494
(lp495
F-10.99929538702341
aF-9.283088353024002
asS'dont'
p496
(lp497
F-9.414332886302255
aF-6.060695931687554
asS'feel'
p498
(lp499
F-9.99929538702341
aF-8.546122758857797
asS'image'
p500
(lp501
F-9.414332886302255
aF-10.868050853745158
asS'within'
p502
(lp503
F-10.99929538702341
aF-9.283088353024002
asS'brands'
p504
(lp505
F-9.99929538702341
aF-9.283088353024002
asS'doesnt'
p506
(lp507
F-9.99929538702341
aF-8.868050853745158
asS'choose'
p508
(lp509
F-10.99929538702341
aF-9.283088353024002
asS'tiny'
p510
(lp511
F-9.414332886302255
aF-9.868050853745158
asS'another'
p512
(lp513
F-10.99929538702341
aF-9.283088353024002
asS'heated'
p514
(lp515
F-10.99929538702341
aF-9.283088353024002
asS'carry'
p516
(lp517
F-8.677367292136049
aF-10.868050853745158
asS'clarity'
p518
(lp519
F-8.414332886302255
aF-10.868050853745158
asS'quality'
p520
(lp521
F-4.751367873579825
aF-5.408619235107861
asS'size'
p522
(lp523
F-8.191940464965807
aF-9.283088353024002
asS'impressed'
p524
(lp525
F-8.99929538702341
aF-10.868050853745158
asS'deal'
p526
(lp527
F-8.99929538702341
aF-10.868050853745158
asS'service'
p528
(lp529
F-8.414332886302255
aF-9.283088353024002
asS'transfer'
p530
(lp531
F-9.414332886302255
aF-8.546122758857797
asS'durable'
p532
(lp533
F-9.99929538702341
aF-9.868050853745158
asS'fast'
p534
(lp535
F-8.99929538702341
aF-9.283088353024002
asS'anyone'
p536
(lp537
F-10.99929538702341
aF-9.283088353024002
asS'camera'
p538
(lp539
F-8.191940464965807
aF-7.868050853745158
asS'too'
p540
(lp541
F-8.414332886302255
aF-7.868050853745158
asS'lot'
p542
(lp543
F-9.99929538702341
aF-9.283088353024002
asS'recommendable'
p544
(lp545
F-9.99929538702341
aF-9.868050853745158
asS'perfectly'
p546
(lp547
F-8.99929538702341
aF-10.868050853745158
asS'low'
p548
(lp549
F-7.8293703855810985
aF-7.868050853745158
asS'function'
p550
(lp551
F-9.99929538702341
aF-9.868050853745158
asS'buy'
p552
(lp553
F-6.539863768386114
aF-5.408619235107861
asS'complete'
p554
(lp555
F-9.99929538702341
aF-8.868050853745158
asS'hp'
p556
(lp557
F-9.99929538702341
aF-9.283088353024002
asS'memory'
p558
(lp559
F-9.99929538702341
aF-9.868050853745158
asS'lower'
p560
(lp561
F-9.414332886302255
aF-10.868050853745158
asS'delivery'
p562
(lp563
F-7.999295387023412
aF-9.283088353024002
asS'properly'
p564
(lp565
F-10.99929538702341
aF-7.546122758857796
asS'wasted'
p566
(lp567
F-10.99929538702341
aF-9.283088353024002
asS'believe'
p568
(lp569
F-9.414332886302255
aF-10.868050853745158
asS'buying'
p570
(lp571
F-8.99929538702341
aF-8.546122758857797
asS'loved'
p572
(lp573
F-8.414332886302255
aF-10.868050853745158
asS'lenovo'
p574
(lp575
F-10.99929538702341
aF-9.283088353024002
asS'effective'
p576
(lp577
F-9.414332886302255
aF-9.868050853745158
asS'elegant'
p578
(lp579
F-8.677367292136049
aF-10.868050853745158
asS'smooth'
p580
(lp581
F-8.99929538702341
aF-10.868050853745158
asS'below'
p582
(lp583
F-9.99929538702341
aF-9.868050853745158
asS'cost'
p584
(lp585
F-8.99929538702341
aF-9.868050853745158
asS'bag'
p586
(lp587
F-7.092404791414893
aF-10.868050853745158
asS'light'
p588
(lp589
F-7.298855668882319
aF-10.868050853745158
asS'video'
p590
(lp591
F-9.99929538702341
aF-9.283088353024002
asS'problem'
p592
(lp593
F-8.99929538702341
aF-8.868050853745158
asS'providing'
p594
(lp595
F-10.99929538702341
aF-9.283088353024002
asS'display'
p596
(lp597
F-8.677367292136049
aF-8.546122758857797
asS'comfortable'
p598
(lp599
F-8.99929538702341
aF-9.283088353024002
asS'selling'
p600
(lp601
F-10.99929538702341
aF-9.283088353024002
asS'seen'
p602
(lp603
F-9.99929538702341
aF-8.868050853745158
asS'again'
p604
(lp605
F-9.414332886302255
aF-9.283088353024002
asS'compared'
p606
(lp607
F-9.99929538702341
aF-8.546122758857797
asS'angle'
p608
(lp609
F-9.99929538702341
aF-9.868050853745158
asS'built'
p610
(lp611
F-8.99929538702341
aF-9.868050853745158
asS'no'
p612
(lp613
F-7.539863768386113
aF-9.868050853745158
asS'convenient'
p614
(lp615
F-9.414332886302255
aF-10.868050853745158
asS'-'
p616
(lp617
F-10.99929538702341
aF-2.6248768702722076
asS'recommended'
p618
(lp619
F-8.677367292136049
aF-8.546122758857797
asS'without'
p620
(lp621
F-8.414332886302255
aF-10.868050853745158
asS'build'
p622
(lp623
F-7.539863768386113
aF-9.868050853745158
asS'performance'
p624
(lp625
F-7.298855668882319
aF-7.167611135604066
asS'brand'
p626
(lp627
F-8.677367292136049
aF-9.868050853745158
asS'guys'
p628
(lp629
F-10.99929538702341
aF-8.868050853745158
asS'poor'
p630
(lp631
F-10.99929538702341
aF-6.408619235107861
asS'picture'
p632
(lp633
F-7.999295387023412
aF-9.283088353024002
asS'such'
p634
(lp635
F-8.99929538702341
aF-8.060695931687555
asS'price'
p636
(lp637
F-5.539863768386113
aF-10.868050853745158
asS'important'
p638
(lp639
F-9.414332886302255
aF-10.868050853745158
asS'nothing'
p640
(lp641
F-9.99929538702341
aF-8.868050853745158
asS'hesitation'
p642
(lp643
F-8.677367292136049
aF-10.868050853745158
asS'extremely'
p644
(lp645
F-9.414332886302255
aF-9.283088353024002
asS'class'
p646
(lp647
F-10.99929538702341
aF-9.283088353024002
asS'operate'
p648
(lp649
F-9.414332886302255
aF-9.868050853745158
asS'cheated'
p650
(lp651
F-10.99929538702341
aF-9.283088353024002
asS'sturdy'
p652
(lp653
F-8.677367292136049
aF-10.868050853745158
asS'mobile'
p654
(lp655
F-10.99929538702341
aF-8.546122758857797
asS'average'
p656
(lp657
F-10.99929538702341
aF-8.546122758857797
asS'space'
p658
(lp659
F-9.414332886302255
aF-9.868050853745158
asS'request'
p660
(lp661
F-10.99929538702341
aF-8.868050853745158
asS'drive'
p662
(lp663
F-9.414332886302255
aF-10.868050853745158
asS'data'
p664
(lp665
F-9.99929538702341
aF-8.868050853745158
asS'definitely'
p666
(lp667
F-9.414332886302255
aF-10.868050853745158
asS'time'
p668
(lp669
F-9.99929538702341
aF-8.060695931687555
asS'resolution'
p670
(lp671
F-8.99929538702341
aF-10.868050853745158
asS'wow'
p672
(lp673
F-8.99929538702341
aF-10.868050853745158
astp674
Rp675
.