ccollections
Counter
p0
((dp1
S''
p2
(lp3
F-11.136350341454156
aF-11.054604317960672
asS'impression'
p4
(lp5
F-11.136350341454156
aF-9.469641817239516
asS'cheap'
p6
(lp7
F-8.328995419396552
aF-7.884679316518359
asS'sleek'
p8
(lp9
F-9.136350341454156
aF-11.054604317960672
asS'shoe'
p10
(lp11
F-9.136350341454156
aF-9.469641817239516
asS'fine'
p12
(lp13
F-8.551387840733
aF-11.054604317960672
asS'issues'
p14
(lp15
F-8.814422246566794
aF-11.054604317960672
asS'certainly'
p16
(lp17
F-9.136350341454156
aF-11.054604317960672
asS'slow'
p18
(lp19
F-11.136350341454156
aF-7.469641817239516
asS'enough'
p20
(lp21
F-9.551387840733
aF-10.054604317960672
asS'should'
p22
(lp23
F-10.136350341454156
aF-10.054604317960672
asS'failed'
p24
(lp25
F-11.136350341454156
aF-9.469641817239516
asS'dissatisfied'
p26
(lp27
F-11.136350341454156
aF-9.469641817239516
asS'pretty'
p28
(lp29
F-9.136350341454156
aF-11.054604317960672
asS'photo'
p30
(lp31
F-9.551387840733
aF-11.054604317960672
asS'worth'
p32
(lp33
F-6.814422246566793
aF-8.469641817239516
asS'sound'
p34
(lp35
F-9.551387840733
aF-9.469641817239516
asS'smartphone'
p36
(lp37
F-10.136350341454156
aF-10.054604317960672
asS'premium'
p38
(lp39
F-10.136350341454156
aF-9.469641817239516
asS'worse'
p40
(lp41
F-11.136350341454156
aF-9.469641817239516
asS'touch'
p42
(lp43
F-10.136350341454156
aF-10.054604317960672
asS'far'
p44
(lp45
F-8.136350341454156
aF-11.054604317960672
asS'photography'
p46
(lp47
F-9.551387840733
aF-11.054604317960672
asS'overall'
p48
(lp49
F-8.136350341454156
aF-9.469641817239516
asS'dell'
p50
(lp51
F-10.136350341454156
aF-9.469641817239516
asS'choice'
p52
(lp53
F-11.136350341454156
aF-8.469641817239516
asS'feels'
p54
(lp55
F-9.551387840733
aF-11.054604317960672
asS'every'
p56
(lp57
F-10.136350341454156
aF-10.054604317960672
asS'month'
p58
(lp59
F-11.136350341454156
aF-8.73267622307331
asS'condition'
p60
(lp61
F-9.136350341454156
aF-11.054604317960672
asS'cool'
p62
(lp63
F-9.551387840733
aF-11.054604317960672
asS'impressive'
p64
(lp65
F-9.551387840733
aF-11.054604317960672
asS'twice'
p66
(lp67
F-9.551387840733
aF-9.469641817239516
asS'did'
p68
(lp69
F-10.136350341454156
aF-10.054604317960672
asS'standards'
p70
(lp71
F-10.136350341454156
aF-10.054604317960672
asS'large'
p72
(lp73
F-9.551387840733
aF-11.054604317960672
asS'item'
p74
(lp75
F-11.136350341454156
aF-7.884679316518359
asS'bad'
p76
(lp77
F-11.136350341454156
aF-5.500015466283035
asS'stuff'
p78
(lp79
F-10.136350341454156
aF-10.054604317960672
asS'small'
p80
(lp81
F-8.551387840733
aF-9.054604317960672
asS'finishing'
p82
(lp83
F-9.551387840733
aF-11.054604317960672
asS'spent'
p84
(lp85
F-9.551387840733
aF-10.054604317960672
asS'enjoy'
p86
(lp87
F-9.551387840733
aF-11.054604317960672
asS'portable'
p88
(lp89
F-9.551387840733
aF-11.054604317960672
asS'elegant'
p90
(lp91
F-8.814422246566794
aF-11.054604317960672
asS'second'
p92
(lp93
F-9.136350341454156
aF-11.054604317960672
asS'cost'
p94
(lp95
F-9.136350341454156
aF-9.469641817239516
asS'design'
p96
(lp97
F-7.136350341454156
aF-8.73267622307331
asS'best'
p98
(lp99
F-5.888422828010571
aF-11.054604317960672
asS'hesitation'
p100
(lp101
F-8.814422246566794
aF-11.054604317960672
asS'power'
p102
(lp103
F-9.551387840733
aF-11.054604317960672
asS'pictures'
p104
(lp105
F-11.136350341454156
aF-9.469641817239516
asS'+'
p106
(lp107
F-2.589455881566519
aF-11.054604317960672
asS'safe'
p108
(lp109
F-9.551387840733
aF-11.054604317960672
asS'please'
p110
(lp111
F-10.136350341454156
aF-7.35416459981958
asS'superb'
p112
(lp113
F-8.328995419396552
aF-11.054604317960672
asS'waiting'
p114
(lp115
F-10.136350341454156
aF-10.054604317960672
asS'worser'
p116
(lp117
F-11.136350341454156
aF-9.469641817239516
asS'reading'
p118
(lp119
F-10.136350341454156
aF-10.054604317960672
asS'ever'
p120
(lp121
F-8.814422246566794
aF-7.247249395903069
asS'across'
p122
(lp123
F-8.551387840733
aF-11.054604317960672
asS'bought'
p124
(lp125
F-9.136350341454156
aF-8.469641817239516
asS'affordable'
p126
(lp127
F-8.814422246566794
aF-11.054604317960672
asS'screen'
p128
(lp129
F-8.814422246566794
aF-10.054604317960672
asS'never'
p130
(lp131
F-9.551387840733
aF-7.247249395903069
asS'packing'
p132
(lp133
F-8.814422246566794
aF-10.054604317960672
asS'others'
p134
(lp135
F-10.136350341454156
aF-9.054604317960672
asS'strong'
p136
(lp137
F-9.551387840733
aF-11.054604317960672
asS'faced'
p138
(lp139
F-10.136350341454156
aF-10.054604317960672
asS'received'
p140
(lp141
F-10.136350341454156
aF-8.73267622307331
asS'great'
p142
(lp143
F-6.182154031067281
aF-8.469641817239516
asS'pendrive'
p144
(lp145
F-7.435910623313063
aF-6.73267622307331
asS'ahead'
p146
(lp147
F-9.136350341454156
aF-11.054604317960672
asS'many'
p148
(lp149
F-11.136350341454156
aF-9.469641817239516
asS'study'
p150
(lp151
F-8.551387840733
aF-10.054604317960672
asS'according'
p152
(lp153
F-10.136350341454156
aF-10.054604317960672
asS'experience'
p154
(lp155
F-8.814422246566794
aF-8.73267622307331
asS'display'
p156
(lp157
F-8.814422246566794
aF-8.73267622307331
asS'products'
p158
(lp159
F-9.136350341454156
aF-8.469641817239516
asS'atleast'
p160
(lp161
F-11.136350341454156
aF-9.469641817239516
asS'suitable'
p162
(lp163
F-11.136350341454156
aF-9.054604317960672
asS'makes'
p164
(lp165
F-9.551387840733
aF-11.054604317960672
asS'control'
p166
(lp167
F-9.551387840733
aF-11.054604317960672
asS'fantastic'
p168
(lp169
F-9.551387840733
aF-11.054604317960672
asS'love'
p170
(lp171
F-8.328995419396552
aF-11.054604317960672
asS'os'
p172
(lp173
F-9.551387840733
aF-11.054604317960672
asS'extra'
p174
(lp175
F-11.136350341454156
aF-9.469641817239516
asS'simple'
p176
(lp177
F-9.551387840733
aF-11.054604317960672
asS'had'
p178
(lp179
F-10.136350341454156
aF-9.054604317960672
asS'prefer'
p180
(lp181
F-10.136350341454156
aF-10.054604317960672
asS'highly'
p182
(lp183
F-8.328995419396552
aF-8.469641817239516
asS'satisfaction'
p184
(lp185
F-9.551387840733
aF-11.054604317960672
asS'simply'
p186
(lp187
F-8.814422246566794
aF-11.054604317960672
asS'table'
p188
(lp189
F-8.814422246566794
aF-10.054604317960672
asS'total'
p190
(lp191
F-10.136350341454156
aF-10.054604317960672
asS'expensive'
p192
(lp193
F-10.136350341454156
aF-10.054604317960672
asS'everybody'
p194
(lp195
F-11.136350341454156
aF-9.469641817239516
asS'awsome'
p196
(lp197
F-9.551387840733
aF-11.054604317960672
asS'takes'
p198
(lp199
F-10.136350341454156
aF-9.469641817239516
asS'working'
p200
(lp201
F-7.551387840732999
aF-6.147713722352154
asS'decent'
p202
(lp203
F-8.328995419396552
aF-11.054604317960672
asS'been'
p204
(lp205
F-10.136350341454156
aF-8.73267622307331
asS'mark'
p206
(lp207
F-10.136350341454156
aF-9.054604317960672
asS'camera'
p208
(lp209
F-8.328995419396552
aF-8.054604317960672
asS'memory'
p210
(lp211
F-10.136350341454156
aF-10.054604317960672
asS'expected'
p212
(lp213
F-8.814422246566794
aF-7.884679316518359
asS'waste'
p214
(lp215
F-11.136350341454156
aF-6.147713722352154
asS'more'
p216
(lp217
F-8.551387840733
aF-8.73267622307331
asS'attractive'
p218
(lp219
F-8.814422246566794
aF-10.054604317960672
asS'life'
p220
(lp221
F-8.814422246566794
aF-8.469641817239516
asS'company'
p222
(lp223
F-10.136350341454156
aF-9.469641817239516
asS'priced'
p224
(lp225
F-9.551387840733
aF-11.054604317960672
asS'phone'
p226
(lp227
F-6.966425340011844
aF-7.054604317960672
asS'excellent'
p228
(lp229
F-6.229459745845637
aF-11.054604317960672
asS'those'
p230
(lp231
F-9.551387840733
aF-11.054604317960672
asS'must'
p232
(lp233
F-9.136350341454156
aF-11.054604317960672
asS'customer'
p234
(lp235
F-9.551387840733
aF-11.054604317960672
asS'disappointing'
p236
(lp237
F-11.136350341454156
aF-9.054604317960672
asS'pendrives'
p238
(lp239
F-9.551387840733
aF-10.054604317960672
asS'reliable'
p240
(lp241
F-9.136350341454156
aF-9.054604317960672
asS'appearance'
p242
(lp243
F-10.136350341454156
aF-10.054604317960672
asS'budget'
p244
(lp245
F-8.814422246566794
aF-10.054604317960672
asS'value'
p246
(lp247
F-6.814422246566793
aF-11.054604317960672
asS'air'
p248
(lp249
F-11.136350341454156
aF-9.054604317960672
asS'movies'
p250
(lp251
F-10.136350341454156
aF-10.054604317960672
asS'while'
p252
(lp253
F-11.136350341454156
aF-9.469641817239516
asS'install'
p254
(lp255
F-8.814422246566794
aF-11.054604317960672
asS'didnt'
p256
(lp257
F-9.551387840733
aF-9.469641817239516
asS'beautiful'
p258
(lp259
F-8.814422246566794
aF-11.054604317960672
asS'transcend'
p260
(lp261
F-11.136350341454156
aF-9.054604317960672
asS'compare'
p262
(lp263
F-9.551387840733
aF-11.054604317960672
asS'purchased'
p264
(lp265
F-11.136350341454156
aF-8.73267622307331
asS'backing'
p266
(lp267
F-11.136350341454156
aF-9.469641817239516
asS'awesome'
p268
(lp269
F-6.381462839290688
aF-11.054604317960672
asS'customers'
p270
(lp271
F-10.136350341454156
aF-10.054604317960672
asS'heating'
p272
(lp273
F-11.136350341454156
aF-8.73267622307331
asS'high'
p274
(lp275
F-9.136350341454156
aF-10.054604317960672
asS'tag'
p276
(lp277
F-9.551387840733
aF-11.054604317960672
asS'something'
p278
(lp279
F-10.136350341454156
aF-9.054604317960672
asS'tab'
p280
(lp281
F-11.136350341454156
aF-9.469641817239516
asS'wow'
p282
(lp283
F-8.814422246566794
aF-11.054604317960672
asS'happy'
p284
(lp285
F-7.814422246566793
aF-8.054604317960672
asS'needs'
p286
(lp287
F-10.136350341454156
aF-9.469641817239516
asS'defective'
p288
(lp289
F-11.136350341454156
aF-9.054604317960672
asS'pay'
p290
(lp291
F-10.136350341454156
aF-10.054604317960672
asS'make'
p292
(lp293
F-11.136350341454156
aF-9.469641817239516
asS'same'
p294
(lp295
F-10.136350341454156
aF-9.469641817239516
asS'lamp'
p296
(lp297
F-7.551387840732999
aF-10.054604317960672
asS'machine'
p298
(lp299
F-9.136350341454156
aF-10.054604317960672
asS'till'
p300
(lp301
F-9.136350341454156
aF-11.054604317960672
asS'amazing'
p302
(lp303
F-7.229459745845637
aF-11.054604317960672
asS'speaker'
p304
(lp305
F-11.136350341454156
aF-9.469641817239516
asS'low'
p306
(lp307
F-7.9664253400118445
aF-7.884679316518359
asS'copying'
p308
(lp309
F-11.136350341454156
aF-9.469641817239516
asS'faulty'
p310
(lp311
F-11.136350341454156
aF-9.469641817239516
asS'upto'
p312
(lp313
F-10.136350341454156
aF-10.054604317960672
asS'product'
p314
(lp315
F-4.027825884675987
aF-3.9993218824594825
asS'used'
p316
(lp317
F-8.328995419396552
aF-7.595172699323376
asS'may'
p318
(lp319
F-11.136350341454156
aF-9.054604317960672
asS'friends'
p320
(lp321
F-9.551387840733
aF-9.054604317960672
asS'damaged'
p322
(lp323
F-11.136350341454156
aF-8.469641817239516
asS'wastage'
p324
(lp325
F-11.136350341454156
aF-8.73267622307331
asS'viewing'
p326
(lp327
F-11.136350341454156
aF-9.469641817239516
asS'brands'
p328
(lp329
F-10.136350341454156
aF-9.469641817239516
asS'features'
p330
(lp331
F-9.136350341454156
aF-11.054604317960672
asS'date'
p332
(lp333
F-9.136350341454156
aF-11.054604317960672
asS'such'
p334
(lp335
F-8.814422246566794
aF-8.054604317960672
asS'guys'
p336
(lp337
F-10.136350341454156
aF-8.469641817239516
asS'totally'
p338
(lp339
F-8.814422246566794
aF-9.054604317960672
asS'purchase'
p340
(lp341
F-9.551387840733
aF-9.054604317960672
asS'lower'
p342
(lp343
F-9.551387840733
aF-11.054604317960672
asS'third'
p344
(lp345
F-11.136350341454156
aF-9.054604317960672
asS'light'
p346
(lp347
F-7.328995419396552
aF-11.054604317960672
asS'amazon'
p348
(lp349
F-11.136350341454156
aF-9.469641817239516
asS'thought'
p350
(lp351
F-10.136350341454156
aF-9.469641817239516
asS'regretting'
p352
(lp353
F-11.136350341454156
aF-9.469641817239516
asS'materials'
p354
(lp355
F-9.551387840733
aF-11.054604317960672
asS'suggest'
p356
(lp357
F-8.814422246566794
aF-8.469641817239516
asS'very'
p358
(lp359
F-4.907531650958275
aF-4.967141476710333
asS'worst'
p360
(lp361
F-11.136350341454156
aF-5.884679316518361
asS'model'
p362
(lp363
F-10.136350341454156
aF-9.469641817239516
asS'operate'
p364
(lp365
F-9.551387840733
aF-10.054604317960672
asS'cute'
p366
(lp367
F-9.551387840733
aF-11.054604317960672
asS'shoes'
p368
(lp369
F-10.136350341454156
aF-10.054604317960672
asS'office'
p370
(lp371
F-9.551387840733
aF-11.054604317960672
asS'less'
p372
(lp373
F-10.136350341454156
aF-9.054604317960672
asS'powerbank'
p374
(lp375
F-9.551387840733
aF-11.054604317960672
asS'money'
p376
(lp377
F-6.381462839290688
aF-5.925321301015706
asS'laptop'
p378
(lp379
F-9.136350341454156
aF-9.469641817239516
asS'satisfied'
p380
(lp381
F-7.048887500203817
aF-7.054604317960672
asS'looks'
p382
(lp383
F-7.435910623313063
aF-9.469641817239516
asS'mentioned'
p384
(lp385
F-10.136350341454156
aF-10.054604317960672
asS'useful'
p386
(lp387
F-8.551387840733
aF-9.469641817239516
asS'speed'
p388
(lp389
F-7.814422246566793
aF-7.732676223073311
asS'before'
p390
(lp391
F-10.136350341454156
aF-8.054604317960672
asS'perfect'
p392
(lp393
F-7.6769187228168585
aF-11.054604317960672
asS'monitor'
p394
(lp395
F-8.551387840733
aF-11.054604317960672
asS'tablet'
p396
(lp397
F-11.136350341454156
aF-9.054604317960672
asS'seems'
p398
(lp399
F-10.136350341454156
aF-10.054604317960672
asS'expectations'
p400
(lp401
F-10.136350341454156
aF-10.054604317960672
asS'actually'
p402
(lp403
F-10.136350341454156
aF-10.054604317960672
asS'better'
p404
(lp405
F-8.814422246566794
aF-8.247249395903069
asS'color'
p406
(lp407
F-11.136350341454156
aF-9.469641817239516
asS'book'
p408
(lp409
F-9.551387840733
aF-11.054604317960672
asS'spacious'
p410
(lp411
F-9.551387840733
aF-11.054604317960672
asS'easy'
p412
(lp413
F-6.814422246566793
aF-11.054604317960672
asS'usage'
p414
(lp415
F-11.136350341454156
aF-8.73267622307331
asS'has'
p416
(lp417
F-8.551387840733
aF-8.247249395903069
asS'might'
p418
(lp419
F-11.136350341454156
aF-9.469641817239516
asS'smart'
p420
(lp421
F-9.551387840733
aF-11.054604317960672
asS'useless'
p422
(lp423
F-11.136350341454156
aF-7.732676223073311
asS'real'
p424
(lp425
F-9.551387840733
aF-10.054604317960672
asS'usable'
p426
(lp427
F-9.551387840733
aF-11.054604317960672
asS'good'
p428
(lp429
F-4.125123086030902
aF-5.6970523133425885
asS'loss'
p430
(lp431
F-10.136350341454156
aF-9.054604317960672
asS'big'
p432
(lp433
F-10.136350341454156
aF-10.054604317960672
asS'material'
p434
(lp435
F-10.136350341454156
aF-8.469641817239516
asS'dryer'
p436
(lp437
F-11.136350341454156
aF-9.469641817239516
asS'not'
p438
(lp439
F-8.551387840733
aF-3.845150952331722
asS'using'
p440
(lp441
F-8.551387840733
aF-9.054604317960672
asS'bit'
p442
(lp443
F-11.136350341454156
aF-9.469641817239516
asS'unique'
p444
(lp445
F-9.551387840733
aF-11.054604317960672
asS'disappointed'
p446
(lp447
F-11.136350341454156
aF-8.247249395903069
asS'handy'
p448
(lp449
F-8.551387840733
aF-10.054604317960672
asS'prize'
p450
(lp451
F-9.136350341454156
aF-11.054604317960672
asS'wont'
p452
(lp453
F-11.136350341454156
aF-9.054604317960672
asS'packaging'
p454
(lp455
F-9.551387840733
aF-11.054604317960672
asS'crisp'
p456
(lp457
F-10.136350341454156
aF-10.054604317960672
asS'like'
p458
(lp459
F-8.814422246566794
aF-7.884679316518359
asS'lost'
p460
(lp461
F-10.136350341454156
aF-9.469641817239516
asS'fully'
p462
(lp463
F-9.136350341454156
aF-11.054604317960672
asS'piece'
p464
(lp465
F-11.136350341454156
aF-9.469641817239516
asS'serves'
p466
(lp467
F-9.551387840733
aF-11.054604317960672
asS'facing'
p468
(lp469
F-10.136350341454156
aF-10.054604317960672
asS'stopped'
p470
(lp471
F-10.136350341454156
aF-8.247249395903069
asS'reasonable'
p472
(lp473
F-8.551387840733
aF-11.054604317960672
asS'stylish'
p474
(lp475
F-8.814422246566794
aF-11.054604317960672
asS'works'
p476
(lp477
F-7.9664253400118445
aF-11.054604317960672
asS'flipkart'
p478
(lp479
F-9.551387840733
aF-8.469641817239516
asS'heavy'
p480
(lp481
F-11.136350341454156
aF-9.054604317960672
asS'week'
p482
(lp483
F-9.136350341454156
aF-9.469641817239516
asS'satisfactory'
p484
(lp485
F-11.136350341454156
aF-9.469641817239516
asS'old'
p486
(lp487
F-11.136350341454156
aF-9.469641817239516
asS'weight'
p488
(lp489
F-8.328995419396552
aF-11.054604317960672
asS'absolutely'
p490
(lp491
F-8.814422246566794
aF-11.054604317960672
asS'unbelievable'
p492
(lp493
F-9.136350341454156
aF-11.054604317960672
asS'finish'
p494
(lp495
F-8.814422246566794
aF-10.054604317960672
asS'connect'
p496
(lp497
F-10.136350341454156
aF-10.054604317960672
asS'moreover'
p498
(lp499
F-10.136350341454156
aF-10.054604317960672
asS'really'
p500
(lp501
F-7.229459745845637
aF-8.054604317960672
asS'delivered'
p502
(lp503
F-9.551387840733
aF-10.054604317960672
asS'bag'
p504
(lp505
F-7.229459745845637
aF-11.054604317960672
asS'fabulous'
p506
(lp507
F-9.551387840733
aF-11.054604317960672
asS'per'
p508
(lp509
F-11.136350341454156
aF-9.054604317960672
asS'seller'
p510
(lp511
F-10.136350341454156
aF-9.469641817239516
asS'looking'
p512
(lp513
F-7.435910623313063
aF-9.469641817239516
asS'everything'
p514
(lp515
F-9.551387840733
aF-11.054604317960672
asS'seriously'
p516
(lp517
F-10.136350341454156
aF-10.054604317960672
asS'does'
p518
(lp519
F-10.136350341454156
aF-10.054604317960672
asS'print'
p520
(lp521
F-9.136350341454156
aF-11.054604317960672
asS'got'
p522
(lp523
F-9.136350341454156
aF-9.469641817239516
asS'correct'
p524
(lp525
F-10.136350341454156
aF-10.054604317960672
asS'liked'
p526
(lp527
F-9.136350341454156
aF-11.054604317960672
asS'considering'
p528
(lp529
F-11.136350341454156
aF-9.469641817239516
asS'pathetic'
p530
(lp531
F-11.136350341454156
aF-8.247249395903069
asS'quite'
p532
(lp533
F-9.136350341454156
aF-8.73267622307331
asS'quick'
p534
(lp535
F-9.136350341454156
aF-11.054604317960672
asS'completely'
p536
(lp537
F-11.136350341454156
aF-9.469641817239516
asS'worthy'
p538
(lp539
F-9.136350341454156
aF-9.469641817239516
asS'super'
p540
(lp541
F-7.6769187228168585
aF-11.054604317960672
asS'usb'
p542
(lp543
F-11.136350341454156
aF-9.469641817239516
asS'ok'
p544
(lp545
F-11.136350341454156
aF-9.469641817239516
asS'angle'
p546
(lp547
F-10.136350341454156
aF-10.054604317960672
asS'package'
p548
(lp549
F-10.136350341454156
aF-10.054604317960672
asS'months'
p550
(lp551
F-9.551387840733
aF-8.054604317960672
asS'days'
p552
(lp553
F-10.136350341454156
aF-10.054604317960672
asS'hot'
p554
(lp555
F-11.136350341454156
aF-9.054604317960672
asS'thing'
p556
(lp557
F-9.136350341454156
aF-10.054604317960672
asS'range'
p558
(lp559
F-8.328995419396552
aF-11.054604317960672
asS'important'
p560
(lp561
F-9.551387840733
aF-11.054604317960672
asS'transfer'
p562
(lp563
F-9.551387840733
aF-8.469641817239516
asS'backup'
p564
(lp565
F-9.551387840733
aF-9.469641817239516
asS'purpose'
p566
(lp567
F-9.136350341454156
aF-11.054604317960672
asS'major'
p568
(lp569
F-11.136350341454156
aF-9.054604317960672
asS'dont'
p570
(lp571
F-9.136350341454156
aF-5.967141476710333
asS'feel'
p572
(lp573
F-10.136350341454156
aF-8.73267622307331
asS'image'
p574
(lp575
F-9.551387840733
aF-11.054604317960672
asS'within'
p576
(lp577
F-11.136350341454156
aF-9.054604317960672
asS'build'
p578
(lp579
F-7.6769187228168585
aF-10.054604317960672
asS'device'
p580
(lp581
F-9.551387840733
aF-10.054604317960672
asS'doesnt'
p582
(lp583
F-10.136350341454156
aF-9.054604317960672
asS'choose'
p584
(lp585
F-11.136350341454156
aF-9.469641817239516
asS'tiny'
p586
(lp587
F-9.551387840733
aF-10.054604317960672
asS'another'
p588
(lp589
F-11.136350341454156
aF-9.054604317960672
asS'heated'
p590
(lp591
F-11.136350341454156
aF-9.469641817239516
asS'carry'
p592
(lp593
F-8.814422246566794
aF-11.054604317960672
asS'clarity'
p594
(lp595
F-8.551387840733
aF-11.054604317960672
asS'quality'
p596
(lp597
F-4.814422246566793
aF-5.531042361903659
asS'size'
p598
(lp599
F-8.328995419396552
aF-9.469641817239516
asS'impressed'
p600
(lp601
F-9.136350341454156
aF-11.054604317960672
asS'deal'
p602
(lp603
F-9.136350341454156
aF-11.054604317960672
asS'service'
p604
(lp605
F-8.551387840733
aF-9.469641817239516
asS'data'
p606
(lp607
F-10.136350341454156
aF-8.73267622307331
asS'durable'
p608
(lp609
F-10.136350341454156
aF-10.054604317960672
asS'fast'
p610
(lp611
F-8.328995419396552
aF-9.469641817239516
asS'anyone'
p612
(lp613
F-10.136350341454156
aF-9.054604317960672
asS'much'
p614
(lp615
F-9.136350341454156
aF-8.247249395903069
asS'too'
p616
(lp617
F-8.136350341454156
aF-7.884679316518359
asS'lot'
p618
(lp619
F-10.136350341454156
aF-9.469641817239516
asS'recommendable'
p620
(lp621
F-10.136350341454156
aF-10.054604317960672
asS'perfectly'
p622
(lp623
F-9.136350341454156
aF-11.054604317960672
asS'gives'
p624
(lp625
F-8.814422246566794
aF-11.054604317960672
asS'function'
p626
(lp627
F-10.136350341454156
aF-10.054604317960672
asS'selling'
p628
(lp629
F-11.136350341454156
aF-9.054604317960672
asS'battery'
p630
(lp631
F-7.9664253400118445
aF-8.469641817239516
asS'complete'
p632
(lp633
F-10.136350341454156
aF-9.054604317960672
asS'brand'
p634
(lp635
F-8.814422246566794
aF-10.054604317960672
asS'recommend'
p636
(lp637
F-7.136350341454156
aF-7.732676223073311
asS'delivery'
p638
(lp639
F-7.814422246566793
aF-9.469641817239516
asS'properly'
p640
(lp641
F-11.136350341454156
aF-7.595172699323376
asS'wasted'
p642
(lp643
F-11.136350341454156
aF-9.469641817239516
asS'believe'
p644
(lp645
F-9.551387840733
aF-11.054604317960672
asS'buying'
p646
(lp647
F-8.814422246566794
aF-8.247249395903069
asS'loved'
p648
(lp649
F-8.551387840733
aF-11.054604317960672
asS'lenovo'
p650
(lp651
F-11.136350341454156
aF-8.73267622307331
asS'effective'
p652
(lp653
F-9.551387840733
aF-10.054604317960672
asS'samsung'
p654
(lp655
F-9.551387840733
aF-11.054604317960672
asS'smooth'
p656
(lp657
F-9.136350341454156
aF-11.054604317960672
asS'below'
p658
(lp659
F-10.136350341454156
aF-10.054604317960672
asS'future'
p660
(lp661
F-11.136350341454156
aF-9.469641817239516
asS'lover'
p662
(lp663
F-11.136350341454156
aF-9.469641817239516
asS'video'
p664
(lp665
F-10.136350341454156
aF-9.469641817239516
asS'problem'
p666
(lp667
F-8.814422246566794
aF-9.054604317960672
asS'providing'
p668
(lp669
F-11.136350341454156
aF-9.469641817239516
asS'dissapointed'
p670
(lp671
F-11.136350341454156
aF-9.469641817239516
asS'expect'
p672
(lp673
F-11.136350341454156
aF-9.469641817239516
asS'comfortable'
p674
(lp675
F-8.328995419396552
aF-9.469641817239516
asS'buy'
p676
(lp677
F-6.551387840732999
aF-5.299716815797204
asS'seen'
p678
(lp679
F-10.136350341454156
aF-9.054604317960672
asS'again'
p680
(lp681
F-9.551387840733
aF-9.469641817239516
asS'compared'
p682
(lp683
F-10.136350341454156
aF-8.73267622307331
asS'genuine'
p684
(lp685
F-9.551387840733
aF-11.054604317960672
asS'built'
p686
(lp687
F-9.136350341454156
aF-10.054604317960672
asS'no'
p688
(lp689
F-7.435910623313063
aF-9.469641817239516
asS'convenient'
p690
(lp691
F-9.551387840733
aF-11.054604317960672
asS'-'
p692
(lp693
F-11.136350341454156
aF-2.591079944689492
asS'recommended'
p694
(lp695
F-8.551387840733
aF-8.247249395903069
asS'without'
p696
(lp697
F-8.551387840733
aF-11.054604317960672
asS'take'
p698
(lp699
F-11.136350341454156
aF-9.469641817239516
asS'performance'
p700
(lp701
F-7.435910623313063
aF-6.806676804517086
asS'hp'
p702
(lp703
F-10.136350341454156
aF-9.469641817239516
asS'nice'
p704
(lp705
F-5.966425340011844
aF-11.054604317960672
asS'poor'
p706
(lp707
F-11.136350341454156
aF-6.469641817239516
asS'picture'
p708
(lp709
F-8.136350341454156
aF-9.469641817239516
asS'price'
p710
(lp711
F-5.521640497338948
aF-11.054604317960672
asS'regular'
p712
(lp713
F-10.136350341454156
aF-10.054604317960672
asS'nothing'
p714
(lp715
F-10.136350341454156
aF-8.73267622307331
asS'capacity'
p716
(lp717
F-9.551387840733
aF-9.469641817239516
asS'extremely'
p718
(lp719
F-9.551387840733
aF-9.469641817239516
asS'class'
p720
(lp721
F-11.136350341454156
aF-9.054604317960672
asS'audio'
p722
(lp723
F-10.136350341454156
aF-10.054604317960672
asS'cheated'
p724
(lp725
F-11.136350341454156
aF-9.469641817239516
asS'sturdy'
p726
(lp727
F-8.814422246566794
aF-11.054604317960672
asS'mobile'
p728
(lp729
F-9.136350341454156
aF-8.247249395903069
asS'average'
p730
(lp731
F-11.136350341454156
aF-8.469641817239516
asS'space'
p732
(lp733
F-9.551387840733
aF-10.054604317960672
asS'request'
p734
(lp735
F-11.136350341454156
aF-9.054604317960672
asS'drive'
p736
(lp737
F-9.551387840733
aF-11.054604317960672
asS'definitely'
p738
(lp739
F-9.551387840733
aF-11.054604317960672
asS'time'
p740
(lp741
F-10.136350341454156
aF-8.054604317960672
asS'resolution'
p742
(lp743
F-9.136350341454156
aF-10.054604317960672
asS'scrap'
p744
(lp745
F-11.136350341454156
aF-9.469641817239516
astp746
Rp747
.