ccollections
Counter
p0
((dp1
S''
p2
(lp3
F-11.006326078524935
aF-10.380461065088973
asS'impression'
p4
(lp5
F-11.006326078524935
aF-8.795498564367817
asS'cheap'
p6
(lp7
F-8.19897115646733
aF-7.57310614303137
asS'sleek'
p8
(lp9
F-9.006326078524934
aF-10.380461065088973
asS'shoe'
p10
(lp11
F-9.006326078524934
aF-10.380461065088973
asS'fine'
p12
(lp13
F-8.684397983637572
aF-10.380461065088973
asS'issues'
p14
(lp15
F-8.684397983637572
aF-10.380461065088973
asS'certainly'
p16
(lp17
F-9.006326078524934
aF-10.380461065088973
asS'slow'
p18
(lp19
F-11.006326078524935
aF-7.57310614303137
asS'nice'
p20
(lp21
F-6.05212976813806
aF-10.380461065088973
asS'dissatisfied'
p22
(lp23
F-11.006326078524935
aF-8.795498564367817
asS'pretty'
p24
(lp25
F-9.006326078524934
aF-10.380461065088973
asS'money'
p26
(lp27
F-6.421363577803778
aF-5.795498564367817
asS'worth'
p28
(lp29
F-6.9188632372745955
aF-8.380461065088975
asS'customer'
p30
(lp31
F-9.421363577803778
aF-10.380461065088973
asS'very'
p32
(lp33
F-4.877043061579967
aF-5.022909060470889
asS'photography'
p34
(lp35
F-9.421363577803778
aF-10.380461065088973
asS'overall'
p36
(lp37
F-8.006326078524934
aF-8.795498564367817
asS'dell'
p38
(lp39
F-10.006326078524935
aF-9.380461065088975
asS'feels'
p40
(lp41
F-9.421363577803778
aF-10.380461065088973
asS'worst'
p42
(lp43
F-11.006326078524935
aF-5.921029446451676
asS'month'
p44
(lp45
F-11.006326078524935
aF-8.795498564367817
asS'condition'
p46
(lp47
F-9.421363577803778
aF-10.380461065088973
asS'cool'
p48
(lp49
F-9.421363577803778
aF-10.380461065088973
asS'impressive'
p50
(lp51
F-9.421363577803778
aF-10.380461065088973
asS'did'
p52
(lp53
F-10.006326078524935
aF-10.380461065088973
asS'standards'
p54
(lp55
F-10.006326078524935
aF-9.380461065088975
asS'large'
p56
(lp57
F-9.421363577803778
aF-10.380461065088973
asS'twice'
p58
(lp59
F-9.421363577803778
aF-10.380461065088973
asS'bad'
p60
(lp61
F-11.006326078524935
aF-5.426264754702098
asS'small'
p62
(lp63
F-8.684397983637572
aF-8.380461065088975
asS'finishing'
p64
(lp65
F-9.421363577803778
aF-10.380461065088973
asS'portable'
p66
(lp67
F-9.421363577803778
aF-10.380461065088973
asS'elegant'
p68
(lp69
F-8.684397983637572
aF-10.380461065088973
asS'second'
p70
(lp71
F-9.421363577803778
aF-10.380461065088973
asS'cost'
p72
(lp73
F-9.006326078524934
aF-9.380461065088975
asS'design'
p74
(lp75
F-7.19897115646733
aF-8.058532970201611
asS'best'
p76
(lp77
F-5.877043061579967
aF-10.380461065088973
asS'capacity'
p78
(lp79
F-9.421363577803778
aF-8.795498564367817
asS'+'
p80
(lp81
F-2.6183087931797995
aF-10.380461065088973
asS'please'
p82
(lp83
F-11.006326078524935
aF-7.795498564367818
asS'superb'
p84
(lp85
F-8.19897115646733
aF-10.380461065088973
asS'enough'
p86
(lp87
F-10.006326078524935
aF-9.380461065088975
asS'ever'
p88
(lp89
F-8.684397983637572
aF-7.380461065088974
asS'across'
p90
(lp91
F-8.421363577803778
aF-10.380461065088973
asS'bought'
p92
(lp93
F-9.421363577803778
aF-8.380461065088975
asS'affordable'
p94
(lp95
F-8.684397983637572
aF-10.380461065088973
asS'screen'
p96
(lp97
F-8.684397983637572
aF-9.380461065088975
asS'never'
p98
(lp99
F-9.421363577803778
aF-7.57310614303137
asS'packing'
p100
(lp101
F-8.684397983637572
aF-9.380461065088975
asS'others'
p102
(lp103
F-10.006326078524935
aF-9.380461065088975
asS'strong'
p104
(lp105
F-9.421363577803778
aF-10.380461065088973
asS'received'
p106
(lp107
F-11.006326078524935
aF-8.380461065088975
asS'great'
p108
(lp109
F-6.19897115646733
aF-8.058532970201611
asS'pendrive'
p110
(lp111
F-7.305886360383842
aF-7.795498564367818
asS'ahead'
p112
(lp113
F-9.006326078524934
aF-10.380461065088973
asS'study'
p114
(lp115
F-8.421363577803778
aF-10.380461065088973
asS'experience'
p116
(lp117
F-9.006326078524934
aF-8.795498564367817
asS'amazing'
p118
(lp119
F-7.19897115646733
aF-10.380461065088973
asS'products'
p120
(lp121
F-9.006326078524934
aF-8.795498564367817
asS'beautiful'
p122
(lp123
F-9.006326078524934
aF-10.380461065088973
asS'fantastic'
p124
(lp125
F-9.421363577803778
aF-10.380461065088973
asS'love'
p126
(lp127
F-8.421363577803778
aF-10.380461065088973
asS'extra'
p128
(lp129
F-11.006326078524935
aF-8.795498564367817
asS'battery'
p130
(lp131
F-7.836401077082622
aF-8.380461065088975
asS'highly'
p132
(lp133
F-8.19897115646733
aF-8.795498564367817
asS'packaging'
p134
(lp135
F-9.421363577803778
aF-10.380461065088973
asS'simply'
p136
(lp137
F-8.684397983637572
aF-10.380461065088973
asS'table'
p138
(lp139
F-8.684397983637572
aF-10.380461065088973
asS'expensive'
p140
(lp141
F-10.006326078524935
aF-9.380461065088975
asS'awsome'
p142
(lp143
F-9.421363577803778
aF-10.380461065088973
asS'usb'
p144
(lp145
F-11.006326078524935
aF-8.795498564367817
asS'working'
p146
(lp147
F-7.421363577803778
aF-5.988143642310213
asS'decent'
p148
(lp149
F-8.421363577803778
aF-10.380461065088973
asS'been'
p150
(lp151
F-10.006326078524935
aF-8.795498564367817
asS'mark'
p152
(lp153
F-10.006326078524935
aF-9.380461065088975
asS'much'
p154
(lp155
F-9.006326078524934
aF-8.058532970201611
asS'dont'
p156
(lp157
F-9.006326078524934
aF-6.210536063646661
asS'memory'
p158
(lp159
F-10.006326078524935
aF-9.380461065088975
asS'expected'
p160
(lp161
F-9.006326078524934
aF-7.57310614303137
asS'waste'
p162
(lp163
F-11.006326078524935
aF-6.058532970201611
asS'more'
p164
(lp165
F-8.684397983637572
aF-8.380461065088975
asS'life'
p166
(lp167
F-8.684397983637572
aF-10.380461065088973
asS'company'
p168
(lp169
F-10.006326078524935
aF-9.380461065088975
asS'priced'
p170
(lp171
F-9.421363577803778
aF-10.380461065088973
asS'phone'
p172
(lp173
F-6.836401077082622
aF-9.380461065088975
asS'excellent'
p174
(lp175
F-6.099435482916415
aF-10.380461065088973
asS'those'
p176
(lp177
F-9.421363577803778
aF-10.380461065088973
asS'must'
p178
(lp179
F-9.421363577803778
aF-10.380461065088973
asS'sound'
p180
(lp181
F-9.421363577803778
aF-9.380461065088975
asS'disappointing'
p182
(lp183
F-11.006326078524935
aF-8.795498564367817
asS'pendrives'
p184
(lp185
F-9.421363577803778
aF-10.380461065088973
asS'reliable'
p186
(lp187
F-9.006326078524934
aF-9.380461065088975
asS'budget'
p188
(lp189
F-8.684397983637572
aF-10.380461065088973
asS'value'
p190
(lp191
F-6.9188632372745955
aF-10.380461065088973
asS'air'
p192
(lp193
F-11.006326078524935
aF-8.380461065088975
asS'install'
p194
(lp195
F-8.684397983637572
aF-10.380461065088973
asS'didnt'
p196
(lp197
F-9.421363577803778
aF-9.380461065088975
asS'control'
p198
(lp199
F-9.421363577803778
aF-10.380461065088973
asS'compare'
p200
(lp201
F-9.421363577803778
aF-10.380461065088973
asS'awesome'
p202
(lp203
F-6.4827641224679216
aF-10.380461065088973
asS'high'
p204
(lp205
F-9.006326078524934
aF-9.380461065088975
asS'tag'
p206
(lp207
F-9.421363577803778
aF-10.380461065088973
asS'something'
p208
(lp209
F-10.006326078524935
aF-9.380461065088975
asS'purchased'
p210
(lp211
F-11.006326078524935
aF-8.795498564367817
asS'happy'
p212
(lp213
F-8.006326078524934
aF-8.795498564367817
asS'needs'
p214
(lp215
F-11.006326078524935
aF-8.795498564367817
asS'defective'
p216
(lp217
F-11.006326078524935
aF-8.795498564367817
asS'suggest'
p218
(lp219
F-9.006326078524934
aF-8.380461065088975
asS'data'
p220
(lp221
F-10.006326078524935
aF-8.380461065088975
asS'machine'
p222
(lp223
F-9.006326078524934
aF-9.380461065088975
asS'till'
p224
(lp225
F-9.006326078524934
aF-10.380461065088973
asS'lamp'
p226
(lp227
F-7.421363577803778
aF-10.380461065088973
asS'faulty'
p228
(lp229
F-11.006326078524935
aF-8.795498564367817
asS'week'
p230
(lp231
F-9.006326078524934
aF-9.380461065088975
asS'product'
p232
(lp233
F-4.13596135894153
aF-4.0406110622043485
asS'finish'
p234
(lp235
F-8.684397983637572
aF-9.380461065088975
asS'may'
p236
(lp237
F-11.006326078524935
aF-8.795498564367817
asS'friends'
p238
(lp239
F-9.421363577803778
aF-9.380461065088975
asS'damaged'
p240
(lp241
F-11.006326078524935
aF-7.795498564367818
asS'wastage'
p242
(lp243
F-11.006326078524935
aF-8.380461065088975
asS'viewing'
p244
(lp245
F-11.006326078524935
aF-8.795498564367817
asS'brands'
p246
(lp247
F-10.006326078524935
aF-9.380461065088975
asS'purpose'
p248
(lp249
F-9.006326078524934
aF-10.380461065088973
asS'date'
p250
(lp251
F-9.006326078524934
aF-10.380461065088973
asS'genuine'
p252
(lp253
F-9.421363577803778
aF-10.380461065088973
asS'totally'
p254
(lp255
F-9.006326078524934
aF-8.795498564367817
asS'purchase'
p256
(lp257
F-9.421363577803778
aF-10.380461065088973
asS'lower'
p258
(lp259
F-9.421363577803778
aF-10.380461065088973
asS'third'
p260
(lp261
F-11.006326078524935
aF-8.795498564367817
asS'backup'
p262
(lp263
F-9.421363577803778
aF-9.380461065088975
asS'spent'
p264
(lp265
F-9.421363577803778
aF-10.380461065088973
asS'without'
p266
(lp267
F-9.006326078524934
aF-10.380461065088973
asS'model'
p268
(lp269
F-10.006326078524935
aF-9.380461065088975
asS'audio'
p270
(lp271
F-10.006326078524935
aF-9.380461065088975
asS'cute'
p272
(lp273
F-9.421363577803778
aF-10.380461065088973
asS'shoes'
p274
(lp275
F-10.006326078524935
aF-9.380461065088975
asS'office'
p276
(lp277
F-9.421363577803778
aF-10.380461065088973
asS'less'
p278
(lp279
F-10.006326078524935
aF-8.795498564367817
asS'powerbank'
p280
(lp281
F-9.421363577803778
aF-10.380461065088973
asS'photo'
p282
(lp283
F-9.421363577803778
aF-10.380461065088973
asS'laptop'
p284
(lp285
F-9.006326078524934
aF-9.380461065088975
asS'satisfied'
p286
(lp287
F-7.006326078524934
aF-7.210536063646661
asS'looks'
p288
(lp289
F-7.546894459887637
aF-10.380461065088973
asS'touch'
p290
(lp291
F-10.006326078524935
aF-9.380461065088975
asS'useful'
p292
(lp293
F-8.684397983637572
aF-8.795498564367817
asS'speed'
p294
(lp295
F-7.684397983637572
aF-7.380461065088974
asS'before'
p296
(lp297
F-10.006326078524935
aF-8.795498564367817
asS'perfect'
p298
(lp299
F-7.684397983637572
aF-10.380461065088973
asS'monitor'
p300
(lp301
F-9.006326078524934
aF-10.380461065088973
asS'expectations'
p302
(lp303
F-10.006326078524935
aF-9.380461065088975
asS'better'
p304
(lp305
F-9.006326078524934
aF-8.795498564367817
asS'simple'
p306
(lp307
F-9.421363577803778
aF-10.380461065088973
asS'attractive'
p308
(lp309
F-9.421363577803778
aF-9.380461065088975
asS'easy'
p310
(lp311
F-6.684397983637572
aF-10.380461065088973
asS'usage'
p312
(lp313
F-11.006326078524935
aF-8.795498564367817
asS'has'
p314
(lp315
F-8.421363577803778
aF-8.795498564367817
asS'smart'
p316
(lp317
F-9.421363577803778
aF-10.380461065088973
asS'build'
p318
(lp319
F-7.546894459887637
aF-9.380461065088975
asS'real'
p320
(lp321
F-9.421363577803778
aF-10.380461065088973
asS'usable'
p322
(lp323
F-9.421363577803778
aF-10.380461065088973
asS'good'
p324
(lp325
F-4.238141753748008
aF-5.522480069961401
asS'big'
p326
(lp327
F-10.006326078524935
aF-9.380461065088975
asS'material'
p328
(lp329
F-10.006326078524935
aF-7.795498564367818
asS'dryer'
p330
(lp331
F-11.006326078524935
aF-8.795498564367817
asS'not'
p332
(lp333
F-9.006326078524934
aF-3.937517569240245
asS'using'
p334
(lp335
F-8.421363577803778
aF-9.380461065088975
asS'bit'
p336
(lp337
F-11.006326078524935
aF-8.795498564367817
asS'disappointed'
p338
(lp339
F-11.006326078524935
aF-8.380461065088975
asS'handy'
p340
(lp341
F-8.421363577803778
aF-9.380461065088975
asS'prize'
p342
(lp343
F-9.421363577803778
aF-10.380461065088973
asS'loss'
p344
(lp345
F-10.006326078524935
aF-8.795498564367817
asS'like'
p346
(lp347
F-9.006326078524934
aF-8.380461065088975
asS'lost'
p348
(lp349
F-10.006326078524935
aF-8.795498564367817
asS'fully'
p350
(lp351
F-9.006326078524934
aF-10.380461065088973
asS'serves'
p352
(lp353
F-9.421363577803778
aF-10.380461065088973
asS'stopped'
p354
(lp355
F-10.006326078524935
aF-8.058532970201611
asS'reasonable'
p356
(lp357
F-8.684397983637572
aF-10.380461065088973
asS'stylish'
p358
(lp359
F-8.684397983637572
aF-10.380461065088973
asS'works'
p360
(lp361
F-8.19897115646733
aF-10.380461065088973
asS'flipkart'
p362
(lp363
F-9.421363577803778
aF-10.380461065088973
asS'heavy'
p364
(lp365
F-11.006326078524935
aF-8.795498564367817
asS'weight'
p366
(lp367
F-8.684397983637572
aF-10.380461065088973
asS'absolutely'
p368
(lp369
F-8.684397983637572
aF-10.380461065088973
asS'unbelievable'
p370
(lp371
F-9.006326078524934
aF-10.380461065088973
asS'used'
p372
(lp373
F-8.421363577803778
aF-8.058532970201611
asS'expect'
p374
(lp375
F-11.006326078524935
aF-8.795498564367817
asS'moreover'
p376
(lp377
F-10.006326078524935
aF-9.380461065088975
asS'really'
p378
(lp379
F-7.19897115646733
aF-7.795498564367818
asS'delivered'
p380
(lp381
F-9.421363577803778
aF-9.380461065088975
asS'item'
p382
(lp383
F-11.006326078524935
aF-7.795498564367818
asS'per'
p384
(lp385
F-11.006326078524935
aF-8.380461065088975
asS'looking'
p386
(lp387
F-7.421363577803778
aF-8.795498564367817
asS'everything'
p388
(lp389
F-9.421363577803778
aF-10.380461065088973
asS'print'
p390
(lp391
F-9.006326078524934
aF-10.380461065088973
asS'got'
p392
(lp393
F-9.006326078524934
aF-9.380461065088975
asS'liked'
p394
(lp395
F-9.006326078524934
aF-10.380461065088973
asS'pathetic'
p396
(lp397
F-11.006326078524935
aF-7.57310614303137
asS'quite'
p398
(lp399
F-9.006326078524934
aF-8.058532970201611
asS'quick'
p400
(lp401
F-9.421363577803778
aF-10.380461065088973
asS'worthy'
p402
(lp403
F-9.006326078524934
aF-8.795498564367817
asS'super'
p404
(lp405
F-7.684397983637572
aF-10.380461065088973
asS'takes'
p406
(lp407
F-10.006326078524935
aF-9.380461065088975
asS'ok'
p408
(lp409
F-11.006326078524935
aF-8.795498564367817
asS'months'
p410
(lp411
F-9.421363577803778
aF-9.380461065088975
asS'days'
p412
(lp413
F-10.006326078524935
aF-9.380461065088975
asS'thing'
p414
(lp415
F-9.006326078524934
aF-10.380461065088973
asS'range'
p416
(lp417
F-8.19897115646733
aF-10.380461065088973
asS'regular'
p418
(lp419
F-10.006326078524935
aF-9.380461065088975
asS'os'
p420
(lp421
F-9.421363577803778
aF-10.380461065088973
asS'major'
p422
(lp423
F-11.006326078524935
aF-8.795498564367817
asS'features'
p424
(lp425
F-9.421363577803778
aF-10.380461065088973
asS'image'
p426
(lp427
F-9.421363577803778
aF-10.380461065088973
asS'within'
p428
(lp429
F-11.006326078524935
aF-8.795498564367817
asS'device'
p430
(lp431
F-9.421363577803778
aF-9.380461065088975
asS'doesnt'
p432
(lp433
F-10.006326078524935
aF-8.380461065088975
asS'tiny'
p434
(lp435
F-9.421363577803778
aF-9.380461065088975
asS'such'
p436
(lp437
F-8.684397983637572
aF-8.795498564367817
asS'carry'
p438
(lp439
F-8.684397983637572
aF-10.380461065088973
asS'clarity'
p440
(lp441
F-8.421363577803778
aF-10.380461065088973
asS'quality'
p442
(lp443
F-4.777507388029053
aF-5.292998223838634
asS'size'
p444
(lp445
F-8.421363577803778
aF-8.795498564367817
asS'impressed'
p446
(lp447
F-9.006326078524934
aF-10.380461065088973
asS'deal'
p448
(lp449
F-9.421363577803778
aF-10.380461065088973
asS'service'
p450
(lp451
F-8.684397983637572
aF-10.380461065088973
asS'transfer'
p452
(lp453
F-9.421363577803778
aF-7.795498564367818
asS'durable'
p454
(lp455
F-10.006326078524935
aF-9.380461065088975
asS'fast'
p456
(lp457
F-8.19897115646733
aF-9.380461065088975
asS'camera'
p458
(lp459
F-8.19897115646733
aF-8.795498564367817
asS'too'
p460
(lp461
F-8.19897115646733
aF-7.380461065088974
asS'lot'
p462
(lp463
F-10.006326078524935
aF-9.380461065088975
asS'recommendable'
p464
(lp465
F-10.006326078524935
aF-9.380461065088975
asS'perfectly'
p466
(lp467
F-9.006326078524934
aF-10.380461065088973
asS'materials'
p468
(lp469
F-9.421363577803778
aF-10.380461065088973
asS'low'
p470
(lp471
F-7.836401077082622
aF-7.795498564367818
asS'function'
p472
(lp473
F-10.006326078524935
aF-9.380461065088975
asS'buy'
p474
(lp475
F-6.684397983637572
aF-5.795498564367817
asS'complete'
p476
(lp477
F-10.006326078524935
aF-9.380461065088975
asS'brand'
p478
(lp479
F-8.684397983637572
aF-9.380461065088975
asS'recommend'
p480
(lp481
F-7.305886360383842
aF-8.795498564367817
asS'delivery'
p482
(lp483
F-8.19897115646733
aF-9.380461065088975
asS'properly'
p484
(lp485
F-11.006326078524935
aF-7.795498564367818
asS'buying'
p486
(lp487
F-8.684397983637572
aF-8.795498564367817
asS'loved'
p488
(lp489
F-8.421363577803778
aF-10.380461065088973
asS'bag'
p490
(lp491
F-7.099435482916416
aF-10.380461065088973
asS'sturdy'
p492
(lp493
F-9.006326078524934
aF-10.380461065088973
asS'smooth'
p494
(lp495
F-9.006326078524934
aF-10.380461065088973
asS'below'
p496
(lp497
F-10.006326078524935
aF-9.380461065088975
asS'fabulous'
p498
(lp499
F-9.421363577803778
aF-10.380461065088973
asS'light'
p500
(lp501
F-7.421363577803778
aF-10.380461065088973
asS'video'
p502
(lp503
F-10.006326078524935
aF-9.380461065088975
asS'problem'
p504
(lp505
F-9.006326078524934
aF-9.380461065088975
asS'gives'
p506
(lp507
F-8.684397983637572
aF-10.380461065088973
asS'display'
p508
(lp509
F-9.006326078524934
aF-10.380461065088973
asS'comfortable'
p510
(lp511
F-8.19897115646733
aF-8.795498564367817
asS'take'
p512
(lp513
F-11.006326078524935
aF-8.795498564367817
asS'again'
p514
(lp515
F-9.421363577803778
aF-9.380461065088975
asS'compared'
p516
(lp517
F-10.006326078524935
aF-8.380461065088975
asS'angle'
p518
(lp519
F-10.006326078524935
aF-9.380461065088975
asS'built'
p520
(lp521
F-9.006326078524934
aF-9.380461065088975
asS'no'
p522
(lp523
F-7.421363577803778
aF-8.795498564367817
asS'convenient'
p524
(lp525
F-9.421363577803778
aF-10.380461065088973
asS'-'
p526
(lp527
F-11.006326078524935
aF-2.6389940786878263
asS'recommended'
p528
(lp529
F-8.684397983637572
aF-8.380461065088975
asS'book'
p530
(lp531
F-9.421363577803778
aF-10.380461065088973
asS'useless'
p532
(lp533
F-11.006326078524935
aF-7.380461065088974
asS'performance'
p534
(lp535
F-7.546894459887637
aF-7.380461065088974
asS'guys'
p536
(lp537
F-10.006326078524935
aF-8.380461065088975
asS'poor'
p538
(lp539
F-11.006326078524935
aF-6.292998223838635
asS'picture'
p540
(lp541
F-8.421363577803778
aF-8.795498564367817
asS'price'
p542
(lp543
F-5.51447298219526
aF-10.380461065088973
asS'important'
p544
(lp545
F-9.421363577803778
aF-10.380461065088973
asS'nothing'
p546
(lp547
F-11.006326078524935
aF-8.058532970201611
asS'hesitation'
p548
(lp549
F-9.006326078524934
aF-10.380461065088973
asS'extremely'
p550
(lp551
F-10.006326078524935
aF-8.795498564367817
asS'class'
p552
(lp553
F-11.006326078524935
aF-8.795498564367817
asS'operate'
p554
(lp555
F-9.421363577803778
aF-9.380461065088975
asS'samsung'
p556
(lp557
F-9.421363577803778
aF-10.380461065088973
asS'mobile'
p558
(lp559
F-9.006326078524934
aF-9.380461065088975
asS'average'
p560
(lp561
F-11.006326078524935
aF-8.380461065088975
asS'space'
p562
(lp563
F-10.006326078524935
aF-9.380461065088975
asS'drive'
p564
(lp565
F-9.421363577803778
aF-10.380461065088973
asS'definitely'
p566
(lp567
F-9.421363577803778
aF-10.380461065088973
asS'time'
p568
(lp569
F-10.006326078524935
aF-7.57310614303137
asS'far'
p570
(lp571
F-8.19897115646733
aF-10.380461065088973
asS'resolution'
p572
(lp573
F-9.006326078524934
aF-9.380461065088975
asS'wow'
p574
(lp575
F-9.006326078524934
aF-10.380461065088973
astp576
Rp577
.